ARM GAS  C:\Users\hirtt\AppData\Local\Temp\ccWRrSqx.s 			page 1


   1              		.cpu cortex-m4
   2              		.eabi_attribute 27, 1
   3              		.eabi_attribute 28, 1
   4              		.eabi_attribute 20, 1
   5              		.eabi_attribute 21, 1
   6              		.eabi_attribute 23, 3
   7              		.eabi_attribute 24, 1
   8              		.eabi_attribute 25, 1
   9              		.eabi_attribute 26, 1
  10              		.eabi_attribute 30, 2
  11              		.eabi_attribute 34, 1
  12              		.eabi_attribute 18, 4
  13              		.file	"body_led.c"
  14              		.text
  15              	.Ltext0:
  16              		.cfi_sections	.debug_frame
  17              		.section	.text.BodyLedThd,"ax",%progbits
  18              		.align	1
  19              		.p2align 4,,15
  20              		.syntax unified
  21              		.thumb
  22              		.thumb_func
  23              		.fpu fpv4-sp-d16
  24              		.type	BodyLedThd, %function
  25              	BodyLedThd:
  26              	.LFB264:
  27              		.file 1 "body_led.c"
  28              		.loc 1 14 0
  29              		.cfi_startproc
  30              		@ Volatile: function does not return.
  31              		@ args = 0, pretend = 0, frame = 8
  32              		@ frame_needed = 0, uses_anonymous_args = 0
  33              	.LVL0:
  34 0000 00B5     		push	{lr}
  35              		.cfi_def_cfa_offset 4
  36              		.cfi_offset 14, -4
  37              	.LBB51:
  38              	.LBB52:
  39              		.file 2 "../../lib/e-puck2_main-processor/ChibiOS//os/rt/include/chregistry.h"
  40              		.loc 2 135 0
  41 0002 0A4A     		ldr	r2, .L6
  42              	.LBE52:
  43              	.LBE51:
  44              		.loc 1 14 0
  45 0004 0A4B     		ldr	r3, .L6+4
  46              	.LBB55:
  47              	.LBB53:
  48              		.loc 2 135 0
  49 0006 9269     		ldr	r2, [r2, #24]
  50 0008 0A49     		ldr	r1, .L6+8
  51              	.LBE53:
  52              	.LBE55:
  53              		.loc 1 14 0
  54 000a 1B68     		ldr	r3, [r3]
  55              	.LBB56:
  56              	.LBB57:
  57              		.file 3 "../../lib/e-puck2_main-processor/ChibiOS//os/rt/include/chbsem.h"
ARM GAS  C:\Users\hirtt\AppData\Local\Temp\ccWRrSqx.s 			page 2


  58              		.loc 3 143 0
  59 000c 0A4E     		ldr	r6, .L6+12
  60              	.LBE57:
  61              	.LBE56:
  62              	.LBB59:
  63              	.LBB60:
  64              	.LBB61:
  65              		.file 4 "../../lib/e-puck2_main-processor/src/leds.c"
  66              		.loc 4 69 0
  67 000e 0B4D     		ldr	r5, .L6+16
  68              	.LBE61:
  69              	.LBE60:
  70              	.LBE59:
  71              	.LBB66:
  72              	.LBB54:
  73              		.loc 2 135 0
  74 0010 9161     		str	r1, [r2, #24]
  75              	.LBE54:
  76              	.LBE66:
  77              		.loc 1 14 0
  78 0012 83B0     		sub	sp, sp, #12
  79              		.cfi_def_cfa_offset 16
  80              	.LBB67:
  81              	.LBB64:
  82              	.LBB62:
  83              		.loc 4 69 0
  84 0014 0424     		movs	r4, #4
  85              	.LBE62:
  86              	.LBE64:
  87              	.LBE67:
  88              		.loc 1 14 0
  89 0016 0193     		str	r3, [sp, #4]
  90              	.LVL1:
  91              	.L2:
  92              	.LBB68:
  93              	.LBB58:
  94              		.loc 3 143 0 discriminator 1
  95 0018 3046     		mov	r0, r6
  96 001a FFF7FEFF 		bl	chSemWait
  97              	.LVL2:
  98              	.LBE58:
  99              	.LBE68:
 100              	.LBB69:
 101              	.LBB65:
 102              	.LBB63:
 103              		.loc 4 69 0 discriminator 1
 104 001e 2C83     		strh	r4, [r5, #24]	@ movhi
 105              	.LVL3:
 106              	.LBE63:
 107              	.LBE65:
 108              	.LBE69:
 109              		.loc 1 27 0 discriminator 1
 110 0020 4FF47A70 		mov	r0, #1000
 111 0024 FFF7FEFF 		bl	chThdSleep
 112              	.LVL4:
 113              	.LBB70:
 114              	.LBB71:
ARM GAS  C:\Users\hirtt\AppData\Local\Temp\ccWRrSqx.s 			page 3


 115              	.LBB72:
 116              		.loc 4 69 0 discriminator 1
 117 0028 6C83     		strh	r4, [r5, #26]	@ movhi
 118 002a F5E7     		b	.L2
 119              	.L7:
 120              		.align	2
 121              	.L6:
 122 002c 00000000 		.word	ch
 123 0030 00000000 		.word	__stack_chk_guard
 124 0034 00000000 		.word	.LANCHOR0
 125 0038 00000000 		.word	.LANCHOR1
 126 003c 00040240 		.word	1073873920
 127              	.LBE72:
 128              	.LBE71:
 129              	.LBE70:
 130              		.cfi_endproc
 131              	.LFE264:
 132              		.size	BodyLedThd, .-BodyLedThd
 133              		.section	.text.set_led,"ax",%progbits
 134              		.align	1
 135              		.p2align 4,,15
 136              		.global	set_led
 137              		.syntax unified
 138              		.thumb
 139              		.thumb_func
 140              		.fpu fpv4-sp-d16
 141              		.type	set_led, %function
 142              	set_led:
 143              	.LFB257:
 144              		.loc 4 7 0
 145              		.cfi_startproc
 146              		@ args = 0, pretend = 0, frame = 8
 147              		@ frame_needed = 0, uses_anonymous_args = 0
 148              	.LVL5:
 149 0000 70B5     		push	{r4, r5, r6, lr}
 150              		.cfi_def_cfa_offset 16
 151              		.cfi_offset 4, -16
 152              		.cfi_offset 5, -12
 153              		.cfi_offset 6, -8
 154              		.cfi_offset 14, -4
 155 0002 294D     		ldr	r5, .L30
 156 0004 82B0     		sub	sp, sp, #8
 157              		.cfi_def_cfa_offset 24
 158              		.loc 4 7 0
 159 0006 2B68     		ldr	r3, [r5]
 160 0008 0193     		str	r3, [sp, #4]
 161 000a 0E46     		mov	r6, r1
 162              		.loc 4 8 0
 163 000c 0328     		cmp	r0, #3
 164 000e 41D8     		bhi	.L25
 165 0010 DFE800F0 		tbb	[pc, r0]
 166              	.L11:
 167 0014 1A       		.byte	(.L10-.L11)/2
 168 0015 12       		.byte	(.L12-.L11)/2
 169 0016 0A       		.byte	(.L13-.L11)/2
 170 0017 02       		.byte	(.L14-.L11)/2
 171              		.p2align 1
ARM GAS  C:\Users\hirtt\AppData\Local\Temp\ccWRrSqx.s 			page 4


 172              	.L14:
 173              		.loc 4 31 0
 174 0018 0129     		cmp	r1, #1
 175 001a 22D9     		bls	.L22
 176              		.loc 4 32 0
 177 001c 234A     		ldr	r2, .L30+4
 178 001e 5369     		ldr	r3, [r2, #20]
 179 0020 83F40063 		eor	r3, r3, #2048
 180 0024 5361     		str	r3, [r2, #20]
 181 0026 16E0     		b	.L8
 182              	.L13:
 183              		.loc 4 24 0
 184 0028 0129     		cmp	r1, #1
 185 002a 26D9     		bls	.L20
 186              		.loc 4 25 0
 187 002c 1F4A     		ldr	r2, .L30+4
 188 002e 5369     		ldr	r3, [r2, #20]
 189 0030 83F48063 		eor	r3, r3, #1024
 190 0034 5361     		str	r3, [r2, #20]
 191 0036 0EE0     		b	.L8
 192              	.L12:
 193              		.loc 4 17 0
 194 0038 0129     		cmp	r1, #1
 195 003a 18D9     		bls	.L18
 196              		.loc 4 18 0
 197 003c 1B4A     		ldr	r2, .L30+4
 198 003e 5369     		ldr	r3, [r2, #20]
 199 0040 83F04003 		eor	r3, r3, #64
 200 0044 5361     		str	r3, [r2, #20]
 201 0046 06E0     		b	.L8
 202              	.L10:
 203              		.loc 4 10 0
 204 0048 0129     		cmp	r1, #1
 205 004a 1CD9     		bls	.L15
 206              		.loc 4 11 0
 207 004c 174A     		ldr	r2, .L30+4
 208 004e 5369     		ldr	r3, [r2, #20]
 209 0050 83F02003 		eor	r3, r3, #32
 210 0054 5361     		str	r3, [r2, #20]
 211              	.LVL6:
 212              	.L8:
 213              		.loc 4 42 0
 214 0056 019A     		ldr	r2, [sp, #4]
 215 0058 2B68     		ldr	r3, [r5]
 216 005a 9A42     		cmp	r2, r3
 217 005c 18D1     		bne	.L29
 218 005e 02B0     		add	sp, sp, #8
 219              		.cfi_remember_state
 220              		.cfi_def_cfa_offset 16
 221              		@ sp needed
 222 0060 70BD     		pop	{r4, r5, r6, pc}
 223              	.LVL7:
 224              	.L22:
 225              		.cfi_restore_state
 226              		.loc 4 34 0
 227 0062 124B     		ldr	r3, .L30+4
 228 0064 4FF40062 		mov	r2, #2048
ARM GAS  C:\Users\hirtt\AppData\Local\Temp\ccWRrSqx.s 			page 5


 229 0068 29B1     		cbz	r1, .L23
 230              	.L28:
 231              		.loc 4 34 0 is_stmt 0 discriminator 1
 232 006a 5A83     		strh	r2, [r3, #26]	@ movhi
 233 006c F3E7     		b	.L8
 234              	.L18:
 235              		.loc 4 20 0 is_stmt 1
 236 006e 0F4B     		ldr	r3, .L30+4
 237 0070 4022     		movs	r2, #64
 238 0072 0029     		cmp	r1, #0
 239 0074 F9D1     		bne	.L28
 240              	.L23:
 241              		.loc 4 34 0 discriminator 2
 242 0076 1A83     		strh	r2, [r3, #24]	@ movhi
 243 0078 EDE7     		b	.L8
 244              	.L20:
 245              		.loc 4 27 0
 246 007a 0C4B     		ldr	r3, .L30+4
 247 007c 4FF48062 		mov	r2, #1024
 248 0080 0029     		cmp	r1, #0
 249 0082 F8D0     		beq	.L23
 250 0084 F1E7     		b	.L28
 251              	.L15:
 252              		.loc 4 13 0
 253 0086 094B     		ldr	r3, .L30+4
 254 0088 2022     		movs	r2, #32
 255 008a 0029     		cmp	r1, #0
 256 008c F3D0     		beq	.L23
 257 008e ECE7     		b	.L28
 258              	.LVL8:
 259              	.L29:
 260              		.loc 4 42 0
 261 0090 FFF7FEFF 		bl	__stack_chk_fail
 262              	.LVL9:
 263              	.L25:
 264              	.LBB73:
 265              		.loc 4 38 0
 266 0094 0024     		movs	r4, #0
 267              	.LVL10:
 268              	.L9:
 269              		.loc 4 39 0 discriminator 3
 270 0096 E0B2     		uxtb	r0, r4
 271 0098 3146     		mov	r1, r6
 272              		.loc 4 38 0 discriminator 3
 273 009a 0134     		adds	r4, r4, #1
 274              	.LVL11:
 275              		.loc 4 39 0 discriminator 3
 276 009c FFF7FEFF 		bl	set_led
 277              	.LVL12:
 278              		.loc 4 38 0 discriminator 3
 279 00a0 042C     		cmp	r4, #4
 280 00a2 F8D1     		bne	.L9
 281 00a4 D7E7     		b	.L8
 282              	.L31:
 283 00a6 00BF     		.align	2
 284              	.L30:
 285 00a8 00000000 		.word	__stack_chk_guard
ARM GAS  C:\Users\hirtt\AppData\Local\Temp\ccWRrSqx.s 			page 6


 286 00ac 000C0240 		.word	1073875968
 287              	.LBE73:
 288              		.cfi_endproc
 289              	.LFE257:
 290              		.size	set_led, .-set_led
 291              		.section	.text.set_rgb_led,"ax",%progbits
 292              		.align	1
 293              		.p2align 4,,15
 294              		.global	set_rgb_led
 295              		.syntax unified
 296              		.thumb
 297              		.thumb_func
 298              		.fpu fpv4-sp-d16
 299              		.type	set_rgb_led, %function
 300              	set_rgb_led:
 301              	.LFB258:
 302              		.loc 4 44 0
 303              		.cfi_startproc
 304              		@ args = 0, pretend = 0, frame = 8
 305              		@ frame_needed = 0, uses_anonymous_args = 0
 306              	.LVL13:
 307 0000 70B5     		push	{r4, r5, r6, lr}
 308              		.cfi_def_cfa_offset 16
 309              		.cfi_offset 4, -16
 310              		.cfi_offset 5, -12
 311              		.cfi_offset 6, -8
 312              		.cfi_offset 14, -4
 313 0002 094D     		ldr	r5, .L36
 314              		.loc 4 45 0
 315 0004 094E     		ldr	r6, .L36+4
 316              		.loc 4 44 0
 317 0006 2C68     		ldr	r4, [r5]
 318 0008 82B0     		sub	sp, sp, #8
 319              		.cfi_def_cfa_offset 24
 320              		.loc 4 45 0
 321 000a 00EB4000 		add	r0, r0, r0, lsl #1
 322              	.LVL14:
 323              		.loc 4 44 0
 324 000e 0194     		str	r4, [sp, #4]
 325              		.loc 4 45 0
 326 0010 3154     		strb	r1, [r6, r0]
 327 0012 3418     		adds	r4, r6, r0
 328              		.loc 4 48 0
 329 0014 0198     		ldr	r0, [sp, #4]
 330 0016 2968     		ldr	r1, [r5]
 331              	.LVL15:
 332              		.loc 4 46 0
 333 0018 6270     		strb	r2, [r4, #1]
 334              		.loc 4 48 0
 335 001a 8842     		cmp	r0, r1
 336              		.loc 4 47 0
 337 001c A370     		strb	r3, [r4, #2]
 338              		.loc 4 48 0
 339 001e 01D1     		bne	.L35
 340 0020 02B0     		add	sp, sp, #8
 341              		.cfi_remember_state
 342              		.cfi_def_cfa_offset 16
ARM GAS  C:\Users\hirtt\AppData\Local\Temp\ccWRrSqx.s 			page 7


 343              		@ sp needed
 344 0022 70BD     		pop	{r4, r5, r6, pc}
 345              	.LVL16:
 346              	.L35:
 347              		.cfi_restore_state
 348 0024 FFF7FEFF 		bl	__stack_chk_fail
 349              	.LVL17:
 350              	.L37:
 351              		.align	2
 352              	.L36:
 353 0028 00000000 		.word	__stack_chk_guard
 354 002c 00000000 		.word	.LANCHOR2
 355              		.cfi_endproc
 356              	.LFE258:
 357              		.size	set_rgb_led, .-set_rgb_led
 358              		.section	.text.toggle_rgb_led,"ax",%progbits
 359              		.align	1
 360              		.p2align 4,,15
 361              		.global	toggle_rgb_led
 362              		.syntax unified
 363              		.thumb
 364              		.thumb_func
 365              		.fpu fpv4-sp-d16
 366              		.type	toggle_rgb_led, %function
 367              	toggle_rgb_led:
 368              	.LFB259:
 369              		.loc 4 50 0
 370              		.cfi_startproc
 371              		@ args = 0, pretend = 0, frame = 8
 372              		@ frame_needed = 0, uses_anonymous_args = 0
 373              	.LVL18:
 374 0000 30B5     		push	{r4, r5, lr}
 375              		.cfi_def_cfa_offset 12
 376              		.cfi_offset 4, -12
 377              		.cfi_offset 5, -8
 378              		.cfi_offset 14, -4
 379              		.loc 4 51 0
 380 0002 0B4B     		ldr	r3, .L45
 381              		.loc 4 50 0
 382 0004 0B4C     		ldr	r4, .L45+4
 383              		.loc 4 51 0
 384 0006 00EB4000 		add	r0, r0, r0, lsl #1
 385              	.LVL19:
 386 000a 1844     		add	r0, r0, r3
 387              		.loc 4 50 0
 388 000c 83B0     		sub	sp, sp, #12
 389              		.cfi_def_cfa_offset 24
 390              		.loc 4 51 0
 391 000e 435C     		ldrb	r3, [r0, r1]	@ zero_extendqisi2
 392              		.loc 4 50 0
 393 0010 2568     		ldr	r5, [r4]
 394 0012 0195     		str	r5, [sp, #4]
 395              		.loc 4 51 0
 396 0014 33B9     		cbnz	r3, .L43
 397              		.loc 4 54 0
 398 0016 4254     		strb	r2, [r0, r1]
 399              	.L38:
ARM GAS  C:\Users\hirtt\AppData\Local\Temp\ccWRrSqx.s 			page 8


 400              		.loc 4 56 0
 401 0018 019A     		ldr	r2, [sp, #4]
 402              	.LVL20:
 403 001a 2368     		ldr	r3, [r4]
 404 001c 9A42     		cmp	r2, r3
 405 001e 04D1     		bne	.L44
 406 0020 03B0     		add	sp, sp, #12
 407              		.cfi_remember_state
 408              		.cfi_def_cfa_offset 12
 409              		@ sp needed
 410 0022 30BD     		pop	{r4, r5, pc}
 411              	.LVL21:
 412              	.L43:
 413              		.cfi_restore_state
 414              		.loc 4 52 0
 415 0024 0023     		movs	r3, #0
 416 0026 4354     		strb	r3, [r0, r1]
 417 0028 F6E7     		b	.L38
 418              	.LVL22:
 419              	.L44:
 420              		.loc 4 56 0
 421 002a FFF7FEFF 		bl	__stack_chk_fail
 422              	.LVL23:
 423              	.L46:
 424 002e 00BF     		.align	2
 425              	.L45:
 426 0030 00000000 		.word	.LANCHOR2
 427 0034 00000000 		.word	__stack_chk_guard
 428              		.cfi_endproc
 429              	.LFE259:
 430              		.size	toggle_rgb_led, .-toggle_rgb_led
 431              		.section	.text.set_body_led,"ax",%progbits
 432              		.align	1
 433              		.p2align 4,,15
 434              		.global	set_body_led
 435              		.syntax unified
 436              		.thumb
 437              		.thumb_func
 438              		.fpu fpv4-sp-d16
 439              		.type	set_body_led, %function
 440              	set_body_led:
 441              	.LFB260:
 442              		.loc 4 65 0
 443              		.cfi_startproc
 444              		@ args = 0, pretend = 0, frame = 8
 445              		@ frame_needed = 0, uses_anonymous_args = 0
 446              	.LVL24:
 447 0000 00B5     		push	{lr}
 448              		.cfi_def_cfa_offset 4
 449              		.cfi_offset 14, -4
 450 0002 0D4B     		ldr	r3, .L55
 451 0004 83B0     		sub	sp, sp, #12
 452              		.cfi_def_cfa_offset 16
 453              		.loc 4 65 0
 454 0006 1A68     		ldr	r2, [r3]
 455 0008 0192     		str	r2, [sp, #4]
 456              		.loc 4 66 0
ARM GAS  C:\Users\hirtt\AppData\Local\Temp\ccWRrSqx.s 			page 9


 457 000a 0128     		cmp	r0, #1
 458 000c 0BD9     		bls	.L48
 459              		.loc 4 67 0
 460 000e 0B49     		ldr	r1, .L55+4
 461 0010 4A69     		ldr	r2, [r1, #20]
 462 0012 82F00402 		eor	r2, r2, #4
 463 0016 4A61     		str	r2, [r1, #20]
 464              	.L47:
 465              		.loc 4 70 0
 466 0018 019A     		ldr	r2, [sp, #4]
 467 001a 1B68     		ldr	r3, [r3]
 468 001c 9A42     		cmp	r2, r3
 469 001e 09D1     		bne	.L53
 470 0020 03B0     		add	sp, sp, #12
 471              		.cfi_remember_state
 472              		.cfi_def_cfa_offset 4
 473              		@ sp needed
 474 0022 5DF804FB 		ldr	pc, [sp], #4
 475              	.L48:
 476              		.cfi_restore_state
 477              	.LVL25:
 478              	.LBB76:
 479              	.LBB77:
 480              		.loc 4 69 0
 481 0026 054A     		ldr	r2, .L55+4
 482 0028 0421     		movs	r1, #4
 483 002a 08B9     		cbnz	r0, .L54
 484 002c 5183     		strh	r1, [r2, #26]	@ movhi
 485              	.LBE77:
 486              	.LBE76:
 487              		.loc 4 70 0
 488 002e F3E7     		b	.L47
 489              	.L54:
 490              	.LBB79:
 491              	.LBB78:
 492              		.loc 4 69 0
 493 0030 1183     		strh	r1, [r2, #24]	@ movhi
 494 0032 F1E7     		b	.L47
 495              	.LVL26:
 496              	.L53:
 497              	.LBE78:
 498              	.LBE79:
 499              		.loc 4 70 0
 500 0034 FFF7FEFF 		bl	__stack_chk_fail
 501              	.LVL27:
 502              	.L56:
 503              		.align	2
 504              	.L55:
 505 0038 00000000 		.word	__stack_chk_guard
 506 003c 00040240 		.word	1073873920
 507              		.cfi_endproc
 508              	.LFE260:
 509              		.size	set_body_led, .-set_body_led
 510              		.section	.text.set_front_led,"ax",%progbits
 511              		.align	1
 512              		.p2align 4,,15
 513              		.global	set_front_led
ARM GAS  C:\Users\hirtt\AppData\Local\Temp\ccWRrSqx.s 			page 10


 514              		.syntax unified
 515              		.thumb
 516              		.thumb_func
 517              		.fpu fpv4-sp-d16
 518              		.type	set_front_led, %function
 519              	set_front_led:
 520              	.LFB261:
 521              		.loc 4 79 0
 522              		.cfi_startproc
 523              		@ args = 0, pretend = 0, frame = 8
 524              		@ frame_needed = 0, uses_anonymous_args = 0
 525              	.LVL28:
 526 0000 00B5     		push	{lr}
 527              		.cfi_def_cfa_offset 4
 528              		.cfi_offset 14, -4
 529 0002 0E4B     		ldr	r3, .L65
 530 0004 83B0     		sub	sp, sp, #12
 531              		.cfi_def_cfa_offset 16
 532              		.loc 4 79 0
 533 0006 1A68     		ldr	r2, [r3]
 534 0008 0192     		str	r2, [sp, #4]
 535              		.loc 4 80 0
 536 000a 0128     		cmp	r0, #1
 537 000c 0BD9     		bls	.L58
 538              		.loc 4 81 0
 539 000e 0C49     		ldr	r1, .L65+4
 540 0010 4A69     		ldr	r2, [r1, #20]
 541 0012 82F48042 		eor	r2, r2, #16384
 542 0016 4A61     		str	r2, [r1, #20]
 543              	.L57:
 544              		.loc 4 84 0
 545 0018 019A     		ldr	r2, [sp, #4]
 546 001a 1B68     		ldr	r3, [r3]
 547 001c 9A42     		cmp	r2, r3
 548 001e 0AD1     		bne	.L63
 549 0020 03B0     		add	sp, sp, #12
 550              		.cfi_remember_state
 551              		.cfi_def_cfa_offset 4
 552              		@ sp needed
 553 0022 5DF804FB 		ldr	pc, [sp], #4
 554              	.L58:
 555              		.cfi_restore_state
 556              		.loc 4 83 0
 557 0026 064A     		ldr	r2, .L65+4
 558 0028 4FF48041 		mov	r1, #16384
 559 002c 08B9     		cbnz	r0, .L64
 560              		.loc 4 83 0 is_stmt 0 discriminator 2
 561 002e 5183     		strh	r1, [r2, #26]	@ movhi
 562              		.loc 4 84 0 is_stmt 1 discriminator 2
 563 0030 F2E7     		b	.L57
 564              	.L64:
 565              		.loc 4 83 0 discriminator 1
 566 0032 1183     		strh	r1, [r2, #24]	@ movhi
 567 0034 F0E7     		b	.L57
 568              	.L63:
 569              		.loc 4 84 0
 570 0036 FFF7FEFF 		bl	__stack_chk_fail
ARM GAS  C:\Users\hirtt\AppData\Local\Temp\ccWRrSqx.s 			page 11


 571              	.LVL29:
 572              	.L66:
 573 003a 00BF     		.align	2
 574              	.L65:
 575 003c 00000000 		.word	__stack_chk_guard
 576 0040 000C0240 		.word	1073875968
 577              		.cfi_endproc
 578              	.LFE261:
 579              		.size	set_front_led, .-set_front_led
 580              		.section	.text.clear_leds,"ax",%progbits
 581              		.align	1
 582              		.p2align 4,,15
 583              		.global	clear_leds
 584              		.syntax unified
 585              		.thumb
 586              		.thumb_func
 587              		.fpu fpv4-sp-d16
 588              		.type	clear_leds, %function
 589              	clear_leds:
 590              	.LFB262:
 591              		.loc 4 87 0
 592              		.cfi_startproc
 593              		@ args = 0, pretend = 0, frame = 8
 594              		@ frame_needed = 0, uses_anonymous_args = 0
 595 0000 F0B5     		push	{r4, r5, r6, r7, lr}
 596              		.cfi_def_cfa_offset 20
 597              		.cfi_offset 4, -20
 598              		.cfi_offset 5, -16
 599              		.cfi_offset 6, -12
 600              		.cfi_offset 7, -8
 601              		.cfi_offset 14, -4
 602 0002 0D4F     		ldr	r7, .L73
 603 0004 0D4C     		ldr	r4, .L73+4
 604 0006 3B68     		ldr	r3, [r7]
 605 0008 83B0     		sub	sp, sp, #12
 606              		.cfi_def_cfa_offset 32
 607              	.LBB80:
 608              		.loc 4 88 0
 609 000a 0025     		movs	r5, #0
 610              	.LBE80:
 611              		.loc 4 87 0
 612 000c 0193     		str	r3, [sp, #4]
 613              	.LVL30:
 614              	.LBB83:
 615              		.loc 4 89 0
 616 000e 2E46     		mov	r6, r5
 617              	.LVL31:
 618              	.L68:
 619              		.loc 4 89 0 is_stmt 0 discriminator 3
 620 0010 E8B2     		uxtb	r0, r5
 621 0012 0021     		movs	r1, #0
 622              		.loc 4 88 0 is_stmt 1 discriminator 3
 623 0014 0135     		adds	r5, r5, #1
 624              	.LVL32:
 625              		.loc 4 89 0 discriminator 3
 626 0016 FFF7FEFF 		bl	set_led
 627              	.LVL33:
ARM GAS  C:\Users\hirtt\AppData\Local\Temp\ccWRrSqx.s 			page 12


 628              		.loc 4 88 0 discriminator 3
 629 001a 042D     		cmp	r5, #4
 630              	.LBB81:
 631              	.LBB82:
 632              		.loc 4 45 0 discriminator 3
 633 001c 2670     		strb	r6, [r4]
 634              		.loc 4 46 0 discriminator 3
 635 001e 6670     		strb	r6, [r4, #1]
 636              		.loc 4 47 0 discriminator 3
 637 0020 A670     		strb	r6, [r4, #2]
 638              	.LVL34:
 639 0022 04F10304 		add	r4, r4, #3
 640              	.LBE82:
 641              	.LBE81:
 642              		.loc 4 88 0 discriminator 3
 643 0026 F3D1     		bne	.L68
 644              	.LBE83:
 645              		.loc 4 92 0
 646 0028 019A     		ldr	r2, [sp, #4]
 647 002a 3B68     		ldr	r3, [r7]
 648 002c 9A42     		cmp	r2, r3
 649 002e 01D1     		bne	.L72
 650 0030 03B0     		add	sp, sp, #12
 651              		.cfi_remember_state
 652              		.cfi_def_cfa_offset 20
 653              		@ sp needed
 654 0032 F0BD     		pop	{r4, r5, r6, r7, pc}
 655              	.LVL35:
 656              	.L72:
 657              		.cfi_restore_state
 658 0034 FFF7FEFF 		bl	__stack_chk_fail
 659              	.LVL36:
 660              	.L74:
 661              		.align	2
 662              	.L73:
 663 0038 00000000 		.word	__stack_chk_guard
 664 003c 00000000 		.word	.LANCHOR2
 665              		.cfi_endproc
 666              	.LFE262:
 667              		.size	clear_leds, .-clear_leds
 668              		.section	.text.get_all_rgb_state,"ax",%progbits
 669              		.align	1
 670              		.p2align 4,,15
 671              		.global	get_all_rgb_state
 672              		.syntax unified
 673              		.thumb
 674              		.thumb_func
 675              		.fpu fpv4-sp-d16
 676              		.type	get_all_rgb_state, %function
 677              	get_all_rgb_state:
 678              	.LFB263:
 679              		.loc 4 94 0
 680              		.cfi_startproc
 681              		@ args = 0, pretend = 0, frame = 8
 682              		@ frame_needed = 0, uses_anonymous_args = 0
 683              	.LVL37:
 684 0000 30B5     		push	{r4, r5, lr}
ARM GAS  C:\Users\hirtt\AppData\Local\Temp\ccWRrSqx.s 			page 13


 685              		.cfi_def_cfa_offset 12
 686              		.cfi_offset 4, -12
 687              		.cfi_offset 5, -8
 688              		.cfi_offset 14, -4
 689              		.loc 4 95 0
 690 0002 094B     		ldr	r3, .L79
 691              		.loc 4 94 0
 692 0004 094D     		ldr	r5, .L79+4
 693 0006 0446     		mov	r4, r0
 694              		.loc 4 95 0
 695 0008 07CB     		ldmia	r3!, {r0, r1, r2}
 696              	.LVL38:
 697              		.loc 4 94 0
 698 000a 83B0     		sub	sp, sp, #12
 699              		.cfi_def_cfa_offset 24
 700              		.loc 4 94 0
 701 000c 2B68     		ldr	r3, [r5]
 702 000e 0193     		str	r3, [sp, #4]
 703              		.loc 4 95 0
 704 0010 2060     		str	r0, [r4]	@ unaligned
 705              		.loc 4 96 0
 706 0012 0198     		ldr	r0, [sp, #4]
 707 0014 2B68     		ldr	r3, [r5]
 708              		.loc 4 95 0
 709 0016 6160     		str	r1, [r4, #4]	@ unaligned
 710              		.loc 4 96 0
 711 0018 9842     		cmp	r0, r3
 712              		.loc 4 95 0
 713 001a A260     		str	r2, [r4, #8]	@ unaligned
 714              		.loc 4 96 0
 715 001c 01D1     		bne	.L78
 716 001e 03B0     		add	sp, sp, #12
 717              		.cfi_remember_state
 718              		.cfi_def_cfa_offset 12
 719              		@ sp needed
 720 0020 30BD     		pop	{r4, r5, pc}
 721              	.LVL39:
 722              	.L78:
 723              		.cfi_restore_state
 724 0022 FFF7FEFF 		bl	__stack_chk_fail
 725              	.LVL40:
 726              	.L80:
 727 0026 00BF     		.align	2
 728              	.L79:
 729 0028 00000000 		.word	.LANCHOR2
 730 002c 00000000 		.word	__stack_chk_guard
 731              		.cfi_endproc
 732              	.LFE263:
 733              		.size	get_all_rgb_state, .-get_all_rgb_state
 734              		.section	.text.body_led_start,"ax",%progbits
 735              		.align	1
 736              		.p2align 4,,15
 737              		.global	body_led_start
 738              		.syntax unified
 739              		.thumb
 740              		.thumb_func
 741              		.fpu fpv4-sp-d16
ARM GAS  C:\Users\hirtt\AppData\Local\Temp\ccWRrSqx.s 			page 14


 742              		.type	body_led_start, %function
 743              	body_led_start:
 744              	.LFB265:
 745              		.loc 1 33 0
 746              		.cfi_startproc
 747              		@ args = 0, pretend = 0, frame = 8
 748              		@ frame_needed = 0, uses_anonymous_args = 0
 749 0000 10B5     		push	{r4, lr}
 750              		.cfi_def_cfa_offset 8
 751              		.cfi_offset 4, -8
 752              		.cfi_offset 14, -4
 753 0002 0A4C     		ldr	r4, .L85
 754              		.loc 1 34 0
 755 0004 0A4B     		ldr	r3, .L85+4
 756              		.loc 1 33 0
 757 0006 2268     		ldr	r2, [r4]
 758              		.loc 1 34 0
 759 0008 0A48     		ldr	r0, .L85+8
 760              		.loc 1 33 0
 761 000a 84B0     		sub	sp, sp, #16
 762              		.cfi_def_cfa_offset 24
 763              		.loc 1 34 0
 764 000c 4FF41E71 		mov	r1, #632
 765              		.loc 1 33 0
 766 0010 0392     		str	r2, [sp, #12]
 767              		.loc 1 34 0
 768 0012 0022     		movs	r2, #0
 769 0014 0092     		str	r2, [sp]
 770 0016 4022     		movs	r2, #64
 771 0018 FFF7FEFF 		bl	chThdCreateStatic
 772              	.LVL41:
 773              		.loc 1 35 0
 774 001c 039A     		ldr	r2, [sp, #12]
 775 001e 2368     		ldr	r3, [r4]
 776 0020 9A42     		cmp	r2, r3
 777 0022 01D1     		bne	.L84
 778 0024 04B0     		add	sp, sp, #16
 779              		.cfi_remember_state
 780              		.cfi_def_cfa_offset 8
 781              		@ sp needed
 782 0026 10BD     		pop	{r4, pc}
 783              	.L84:
 784              		.cfi_restore_state
 785 0028 FFF7FEFF 		bl	__stack_chk_fail
 786              	.LVL42:
 787              	.L86:
 788              		.align	2
 789              	.L85:
 790 002c 00000000 		.word	__stack_chk_guard
 791 0030 00000000 		.word	BodyLedThd
 792 0034 00000000 		.word	.LANCHOR3
 793              		.cfi_endproc
 794              	.LFE265:
 795              		.size	body_led_start, .-body_led_start
 796              		.section	.text.barcode_validate,"ax",%progbits
 797              		.align	1
 798              		.p2align 4,,15
ARM GAS  C:\Users\hirtt\AppData\Local\Temp\ccWRrSqx.s 			page 15


 799              		.global	barcode_validate
 800              		.syntax unified
 801              		.thumb
 802              		.thumb_func
 803              		.fpu fpv4-sp-d16
 804              		.type	barcode_validate, %function
 805              	barcode_validate:
 806              	.LFB266:
 807              		.loc 1 37 0
 808              		.cfi_startproc
 809              		@ args = 0, pretend = 0, frame = 8
 810              		@ frame_needed = 0, uses_anonymous_args = 0
 811 0000 10B5     		push	{r4, lr}
 812              		.cfi_def_cfa_offset 8
 813              		.cfi_offset 4, -8
 814              		.cfi_offset 14, -4
 815 0002 194C     		ldr	r4, .L95
 816 0004 82B0     		sub	sp, sp, #8
 817              		.cfi_def_cfa_offset 16
 818              		.loc 1 37 0
 819 0006 2368     		ldr	r3, [r4]
 820 0008 0193     		str	r3, [sp, #4]
 821              	.LVL43:
 822              	.LBB98:
 823              	.LBB99:
 824              	.LBB100:
 825              	.LBB101:
 826              	.LBB102:
 827              	.LBB103:
 828              	.LBB104:
 829              		.file 5 "../../lib/e-puck2_main-processor/ChibiOS//os/ext/CMSIS/include/core_cmFunc.h"
 830              		.loc 5 546 0
 831 000a 2023     		movs	r3, #32
 832              		.syntax unified
 833              	@ 546 "../../lib/e-puck2_main-processor/ChibiOS//os/ext/CMSIS/include/core_cmFunc.h" 1
 834 000c 83F31188 		MSR basepri, r3
 835              	@ 0 "" 2
 836              	.LVL44:
 837              		.thumb
 838              		.syntax unified
 839              	.LBE104:
 840              	.LBE103:
 841              	.LBE102:
 842              		.file 6 "../../lib/e-puck2_main-processor/ChibiOS//os/rt/include/chsys.h"
 843              		.loc 6 349 0
 844 0010 FFF7FEFF 		bl	_stats_start_measure_crit_thd
 845              	.LVL45:
 846              		.loc 6 350 0
 847 0014 FFF7FEFF 		bl	_dbg_check_lock
 848              	.LVL46:
 849              	.LBE101:
 850              	.LBE100:
 851              	.LBB105:
 852              	.LBB106:
 853              		.loc 3 268 0
 854 0018 FFF7FEFF 		bl	chDbgCheckClassI
 855              	.LVL47:
ARM GAS  C:\Users\hirtt\AppData\Local\Temp\ccWRrSqx.s 			page 16


 856              		.loc 3 270 0
 857 001c 1348     		ldr	r0, .L95+4
 858 001e 8368     		ldr	r3, [r0, #8]
 859 0020 002B     		cmp	r3, #0
 860 0022 1BDD     		ble	.L92
 861              	.L88:
 862              	.LVL48:
 863              	.LBE106:
 864              	.LBE105:
 865              		.loc 3 286 0
 866 0024 FFF7FEFF 		bl	chSchRescheduleS
 867              	.LVL49:
 868              	.LBB108:
 869              	.LBB109:
 870              		.loc 6 360 0
 871 0028 FFF7FEFF 		bl	_dbg_check_unlock
 872              	.LVL50:
 873              		.loc 6 361 0
 874 002c FFF7FEFF 		bl	_stats_stop_measure_crit_thd
 875              	.LVL51:
 876              		.loc 6 367 0
 877 0030 0F4B     		ldr	r3, .L95+8
 878 0032 1A68     		ldr	r2, [r3]
 879 0034 9A42     		cmp	r2, r3
 880 0036 04D0     		beq	.L89
 881 0038 9969     		ldr	r1, [r3, #24]
 882 003a 9368     		ldr	r3, [r2, #8]
 883 003c 8A68     		ldr	r2, [r1, #8]
 884 003e 9A42     		cmp	r2, r3
 885 0040 08D3     		bcc	.L93
 886              	.L89:
 887              	.LVL52:
 888              	.LBB110:
 889              	.LBB111:
 890              	.LBB112:
 891              		.loc 5 546 0
 892 0042 0023     		movs	r3, #0
 893              		.syntax unified
 894              	@ 546 "../../lib/e-puck2_main-processor/ChibiOS//os/ext/CMSIS/include/core_cmFunc.h" 1
 895 0044 83F31188 		MSR basepri, r3
 896              	@ 0 "" 2
 897              	.LVL53:
 898              		.thumb
 899              		.syntax unified
 900              	.LBE112:
 901              	.LBE111:
 902              	.LBE110:
 903              	.LBE109:
 904              	.LBE108:
 905              	.LBE99:
 906              	.LBE98:
 907              		.loc 1 39 0
 908 0048 019A     		ldr	r2, [sp, #4]
 909 004a 2368     		ldr	r3, [r4]
 910 004c 9A42     		cmp	r2, r3
 911 004e 08D1     		bne	.L94
 912 0050 02B0     		add	sp, sp, #8
ARM GAS  C:\Users\hirtt\AppData\Local\Temp\ccWRrSqx.s 			page 17


 913              		.cfi_remember_state
 914              		.cfi_def_cfa_offset 8
 915              		@ sp needed
 916 0052 10BD     		pop	{r4, pc}
 917              	.LVL54:
 918              	.L93:
 919              		.cfi_restore_state
 920              	.LBB117:
 921              	.LBB116:
 922              	.LBB114:
 923              	.LBB113:
 924              		.loc 6 367 0
 925 0054 0748     		ldr	r0, .L95+12
 926 0056 FFF7FEFF 		bl	chSysHalt
 927              	.LVL55:
 928 005a F2E7     		b	.L89
 929              	.LVL56:
 930              	.L92:
 931              	.LBE113:
 932              	.LBE114:
 933              	.LBB115:
 934              	.LBB107:
 935              		.loc 3 271 0
 936 005c FFF7FEFF 		bl	chSemSignalI
 937              	.LVL57:
 938 0060 E0E7     		b	.L88
 939              	.LVL58:
 940              	.L94:
 941              	.LBE107:
 942              	.LBE115:
 943              	.LBE116:
 944              	.LBE117:
 945              		.loc 1 39 0
 946 0062 FFF7FEFF 		bl	__stack_chk_fail
 947              	.LVL59:
 948              	.L96:
 949 0066 00BF     		.align	2
 950              	.L95:
 951 0068 00000000 		.word	__stack_chk_guard
 952 006c 00000000 		.word	.LANCHOR1
 953 0070 00000000 		.word	ch
 954 0074 00000000 		.word	.LANCHOR4
 955              		.cfi_endproc
 956              	.LFE266:
 957              		.size	barcode_validate, .-barcode_validate
 958              		.section	.bss.rgb_led,"aw",%nobits
 959              		.align	2
 960              		.set	.LANCHOR2,. + 0
 961              		.type	rgb_led, %object
 962              		.size	rgb_led, 12
 963              	rgb_led:
 964 0000 00000000 		.space	12
 964      00000000 
 964      00000000 
 965              		.section	.bss.waBodyLedThd,"aw",%nobits
 966              		.align	3
 967              		.set	.LANCHOR3,. + 0
ARM GAS  C:\Users\hirtt\AppData\Local\Temp\ccWRrSqx.s 			page 18


 968              		.type	waBodyLedThd, %object
 969              		.size	waBodyLedThd, 632
 970              	waBodyLedThd:
 971 0000 00000000 		.space	632
 971      00000000 
 971      00000000 
 971      00000000 
 971      00000000 
 972              		.section	.data.barcode_ready,"aw",%progbits
 973              		.align	2
 974              		.set	.LANCHOR1,. + 0
 975              		.type	barcode_ready, %object
 976              		.size	barcode_ready, 12
 977              	barcode_ready:
 978 0000 00000000 		.word	barcode_ready
 979 0004 00000000 		.word	barcode_ready
 980 0008 00000000 		.word	0
 981              		.section	.rodata.__FUNCTION__.12112,"a",%progbits
 982              		.align	2
 983              		.set	.LANCHOR0,. + 0
 984              		.type	__FUNCTION__.12112, %object
 985              		.size	__FUNCTION__.12112, 11
 986              	__FUNCTION__.12112:
 987 0000 426F6479 		.ascii	"BodyLedThd\000"
 987      4C656454 
 987      686400
 988              		.section	.rodata.__func__.7153,"a",%progbits
 989              		.align	2
 990              		.set	.LANCHOR4,. + 0
 991              		.type	__func__.7153, %object
 992              		.size	__func__.7153, 12
 993              	__func__.7153:
 994 0000 63685379 		.ascii	"chSysUnlock\000"
 994      73556E6C 
 994      6F636B00 
 995              		.text
 996              	.Letext0:
 997              		.file 7 "c:\\users\\hirtt\\documents\\eclipse_e-puck2_win32_29_jan_2020\\eclipse_e-puck2\\tools\\g
 998              		.file 8 "c:\\users\\hirtt\\documents\\eclipse_e-puck2_win32_29_jan_2020\\eclipse_e-puck2\\tools\\g
 999              		.file 9 "c:\\users\\hirtt\\documents\\eclipse_e-puck2_win32_29_jan_2020\\eclipse_e-puck2\\tools\\g
 1000              		.file 10 "../../lib/e-puck2_main-processor/ChibiOS//os/rt/ports/ARMCMx/compilers/GCC/chtypes.h"
 1001              		.file 11 "../../lib/e-puck2_main-processor/ChibiOS//os/rt/include/chsystypes.h"
 1002              		.file 12 "../../lib/e-puck2_main-processor/ChibiOS//os/rt/include/chschd.h"
 1003              		.file 13 "../../lib/e-puck2_main-processor/ChibiOS//os/ext/CMSIS/include/core_cm4.h"
 1004              		.file 14 "../../lib/e-puck2_main-processor/ChibiOS//os/ext/CMSIS/ST/system_stm32f4xx.h"
 1005              		.file 15 "../../lib/e-puck2_main-processor/ChibiOS//os/ext/CMSIS/ST/stm32f407xx.h"
 1006              		.file 16 "../../lib/e-puck2_main-processor/ChibiOS//os/rt/ports/ARMCMx/chcore.h"
 1007              		.file 17 "../../lib/e-puck2_main-processor/ChibiOS//os/rt/ports/ARMCMx/chcore_v7m.h"
 1008              		.file 18 "../../lib/e-puck2_main-processor/ChibiOS//os/rt/include/chdebug.h"
 1009              		.file 19 "../../lib/e-puck2_main-processor/ChibiOS//os/rt/include/chtm.h"
 1010              		.file 20 "../../lib/e-puck2_main-processor/ChibiOS//os/rt/include/chstats.h"
 1011              		.file 21 "../../lib/e-puck2_main-processor/ChibiOS//os/rt/include/chsem.h"
 1012              		.file 22 "../../lib/e-puck2_main-processor/ChibiOS//os/rt/include/chmtx.h"
 1013              		.file 23 "../../lib/e-puck2_main-processor/ChibiOS//os/rt/include/chevents.h"
 1014              		.file 24 "../../lib/e-puck2_main-processor/ChibiOS//os/rt/include/chqueues.h"
 1015              		.file 25 "../../lib/e-puck2_main-processor/ChibiOS//os/hal/ports/STM32/STM32F4xx/stm32_dma.h"
 1016              		.file 26 "../../lib/e-puck2_main-processor/ChibiOS//os/hal/include/hal_ioblock.h"
ARM GAS  C:\Users\hirtt\AppData\Local\Temp\ccWRrSqx.s 			page 19


 1017              		.file 27 "../../lib/e-puck2_main-processor/ChibiOS//os/hal/ports/STM32/LLD/GPIOv2/pal_lld.h"
 1018              		.file 28 "../../lib/e-puck2_main-processor/ChibiOS//os/hal/include/adc.h"
 1019              		.file 29 "../../lib/e-puck2_main-processor/ChibiOS//os/hal/ports/STM32/STM32F4xx/adc_lld.h"
 1020              		.file 30 "../../lib/e-puck2_main-processor/ChibiOS//os/hal/include/can.h"
 1021              		.file 31 "../../lib/e-puck2_main-processor/ChibiOS//os/hal/ports/STM32/LLD/can_lld.h"
 1022              		.file 32 "../../lib/e-puck2_main-processor/ChibiOS//os/hal/include/dac.h"
 1023              		.file 33 "../../lib/e-puck2_main-processor/ChibiOS//os/hal/ports/STM32/LLD/DACv1/dac_lld.h"
 1024              		.file 34 "../../lib/e-puck2_main-processor/ChibiOS//os/hal/include/ext.h"
 1025              		.file 35 "../../lib/e-puck2_main-processor/ChibiOS//os/hal/ports/STM32/LLD/ext_lld.h"
 1026              		.file 36 "../../lib/e-puck2_main-processor/ChibiOS//os/hal/include/gpt.h"
 1027              		.file 37 "../../lib/e-puck2_main-processor/ChibiOS//os/hal/ports/STM32/LLD/TIMv1/gpt_lld.h"
 1028              		.file 38 "../../lib/e-puck2_main-processor/ChibiOS//os/hal/ports/STM32/LLD/TIMv1/stm32_tim.h"
 1029              		.file 39 "../../lib/e-puck2_main-processor/ChibiOS//os/hal/include/i2c.h"
 1030              		.file 40 "../../lib/e-puck2_main-processor/ChibiOS//os/hal/ports/STM32/LLD/I2Cv1/i2c_lld.h"
 1031              		.file 41 "../../lib/e-puck2_main-processor/ChibiOS//os/hal/include/i2s.h"
 1032              		.file 42 "../../lib/e-puck2_main-processor/ChibiOS//os/hal/ports/STM32/LLD/SPIv1/i2s_lld.h"
 1033              		.file 43 "../../lib/e-puck2_main-processor/ChibiOS//os/hal/include/pwm.h"
 1034              		.file 44 "../../lib/e-puck2_main-processor/ChibiOS//os/hal/ports/STM32/LLD/TIMv1/pwm_lld.h"
 1035              		.file 45 "../../lib/e-puck2_main-processor/ChibiOS//os/hal/include/serial.h"
 1036              		.file 46 "../../lib/e-puck2_main-processor/ChibiOS//os/hal/ports/STM32/LLD/USARTv1/serial_lld.h"
 1037              		.file 47 "../../lib/e-puck2_main-processor/ChibiOS//os/hal/include/sdc.h"
 1038              		.file 48 "../../lib/e-puck2_main-processor/ChibiOS//os/hal/ports/STM32/LLD/sdc_lld.h"
 1039              		.file 49 "../../lib/e-puck2_main-processor/ChibiOS//os/hal/include/spi.h"
 1040              		.file 50 "../../lib/e-puck2_main-processor/ChibiOS//os/hal/ports/STM32/LLD/SPIv1/spi_lld.h"
 1041              		.file 51 "../../lib/e-puck2_main-processor/ChibiOS//os/hal/include/usb.h"
 1042              		.file 52 "../../lib/e-puck2_main-processor/ChibiOS//os/hal/ports/STM32/LLD/OTGv1/usb_lld.h"
 1043              		.file 53 "../../lib/e-puck2_main-processor/ChibiOS//os/hal/ports/STM32/LLD/OTGv1/stm32_otg.h"
 1044              		.file 54 "../../lib/e-puck2_main-processor/ChibiOS//os/hal/include/serial_usb.h"
 1045              		.file 55 "c:\\users\\hirtt\\documents\\eclipse_e-puck2_win32_29_jan_2020\\eclipse_e-puck2\\tools\\
 1046              		.file 56 "c:\\users\\hirtt\\documents\\eclipse_e-puck2_win32_29_jan_2020\\eclipse_e-puck2\\tools\\
 1047              		.file 57 "c:\\users\\hirtt\\documents\\eclipse_e-puck2_win32_29_jan_2020\\eclipse_e-puck2\\tools\\
 1048              		.file 58 "c:\\users\\hirtt\\documents\\eclipse_e-puck2_win32_29_jan_2020\\eclipse_e-puck2\\tools\\
 1049              		.file 59 "../../lib/e-puck2_main-processor/src/usbcfg.h"
 1050              		.file 60 "../../lib/e-puck2_main-processor/ChibiOS_ext/os/hal/include/../ports/STM32/STM32F4xx/dcm
 1051              		.file 61 "c:\\users\\hirtt\\documents\\eclipse_e-puck2_win32_29_jan_2020\\eclipse_e-puck2\\tools\\
 1052              		.file 62 "../../lib/e-puck2_main-processor/src/msgbus/messagebus.h"
 1053              		.file 63 "c:\\users\\hirtt\\documents\\eclipse_e-puck2_win32_29_jan_2020\\eclipse_e-puck2\\tools\\
 1054              		.file 64 "../../lib/e-puck2_main-processor/src/parameter/parameter.h"
 1055              		.file 65 "./main.h"
 1056              		.file 66 "../../lib/e-puck2_main-processor/src/leds.h"
 1057              		.file 67 "../../lib/e-puck2_main-processor/ChibiOS//os/rt/include/chthreads.h"