ARM GAS  C:\Users\hirtt\AppData\Local\Temp\ccYCkxoh.s 			page 1


   1              		.cpu cortex-m4
   2              		.eabi_attribute 27, 1
   3              		.eabi_attribute 28, 1
   4              		.eabi_attribute 20, 1
   5              		.eabi_attribute 21, 1
   6              		.eabi_attribute 23, 3
   7              		.eabi_attribute 24, 1
   8              		.eabi_attribute 25, 1
   9              		.eabi_attribute 26, 1
  10              		.eabi_attribute 30, 2
  11              		.eabi_attribute 34, 1
  12              		.eabi_attribute 18, 4
  13              		.file	"distance_sensor.c"
  14              		.text
  15              	.Ltext0:
  16              		.cfi_sections	.debug_frame
  17              		.section	.text.distance_sensor_init,"ax",%progbits
  18              		.align	1
  19              		.p2align 4,,15
  20              		.global	distance_sensor_init
  21              		.syntax unified
  22              		.thumb
  23              		.thumb_func
  24              		.fpu fpv4-sp-d16
  25              		.type	distance_sensor_init, %function
  26              	distance_sensor_init:
  27              	.LFB261:
  28              		.file 1 "distance_sensor.c"
  29              		.loc 1 73 0
  30              		.cfi_startproc
  31              		@ args = 0, pretend = 0, frame = 16
  32              		@ frame_needed = 0, uses_anonymous_args = 0
  33              	.LVL0:
  34 0000 30B5     		push	{r4, r5, lr}
  35              		.cfi_def_cfa_offset 12
  36              		.cfi_offset 4, -12
  37              		.cfi_offset 5, -8
  38              		.cfi_offset 14, -4
  39 0002 164C     		ldr	r4, .L8
  40 0004 85B0     		sub	sp, sp, #20
  41              		.cfi_def_cfa_offset 32
  42              		.loc 1 73 0
  43 0006 2368     		ldr	r3, [r4]
  44 0008 0393     		str	r3, [sp, #12]
  45              	.LVL1:
  46 000a 0546     		mov	r5, r0
  47              		.loc 1 85 0
  48 000c FFF7FEFF 		bl	VL53L0X_DataInit
  49              	.LVL2:
  50              		.loc 1 88 0
  51 0010 28B1     		cbz	r0, .L6
  52              	.LVL3:
  53              	.L2:
  54              		.loc 1 111 0
  55 0012 039A     		ldr	r2, [sp, #12]
  56 0014 2368     		ldr	r3, [r4]
  57 0016 9A42     		cmp	r2, r3
ARM GAS  C:\Users\hirtt\AppData\Local\Temp\ccYCkxoh.s 			page 2


  58 0018 1DD1     		bne	.L7
  59 001a 05B0     		add	sp, sp, #20
  60              		.cfi_remember_state
  61              		.cfi_def_cfa_offset 12
  62              		@ sp needed
  63 001c 30BD     		pop	{r4, r5, pc}
  64              	.LVL4:
  65              	.L6:
  66              		.cfi_restore_state
  67              		.loc 1 90 0
  68 001e 05F5AE71 		add	r1, r5, #348
  69 0022 2846     		mov	r0, r5
  70              	.LVL5:
  71 0024 FFF7FEFF 		bl	VL53L0X_GetDeviceInfo
  72              	.LVL6:
  73              		.loc 1 93 0
  74 0028 0028     		cmp	r0, #0
  75 002a F2D1     		bne	.L2
  76              		.loc 1 95 0
  77 002c 2846     		mov	r0, r5
  78              	.LVL7:
  79 002e FFF7FEFF 		bl	VL53L0X_StaticInit
  80              	.LVL8:
  81              		.loc 1 99 0
  82 0032 0028     		cmp	r0, #0
  83 0034 EDD1     		bne	.L2
  84              		.loc 1 101 0
  85 0036 0DF10502 		add	r2, sp, #5
  86 003a 02A9     		add	r1, sp, #8
  87 003c 2846     		mov	r0, r5
  88              	.LVL9:
  89 003e FFF7FEFF 		bl	VL53L0X_PerformRefSpadManagement
  90              	.LVL10:
  91              		.loc 1 105 0
  92 0042 0028     		cmp	r0, #0
  93 0044 E5D1     		bne	.L2
  94              	.LVL11:
  95              	.LBB14:
  96              	.LBB15:
  97              		.loc 1 107 0
  98 0046 2846     		mov	r0, r5
  99              	.LVL12:
 100 0048 0DF10702 		add	r2, sp, #7
 101 004c 0DF10601 		add	r1, sp, #6
 102 0050 FFF7FEFF 		bl	VL53L0X_PerformRefCalibration
 103              	.LVL13:
 104 0054 DDE7     		b	.L2
 105              	.LVL14:
 106              	.L7:
 107              	.LBE15:
 108              	.LBE14:
 109              		.loc 1 111 0
 110 0056 FFF7FEFF 		bl	__stack_chk_fail
 111              	.LVL15:
 112              	.L9:
 113 005a 00BF     		.align	2
 114              	.L8:
ARM GAS  C:\Users\hirtt\AppData\Local\Temp\ccYCkxoh.s 			page 3


 115 005c 00000000 		.word	__stack_chk_guard
 116              		.cfi_endproc
 117              	.LFE261:
 118              		.size	distance_sensor_init, .-distance_sensor_init
 119              		.section	.text.distance_sensor_configAccuracy,"ax",%progbits
 120              		.align	1
 121              		.p2align 4,,15
 122              		.global	distance_sensor_configAccuracy
 123              		.syntax unified
 124              		.thumb
 125              		.thumb_func
 126              		.fpu fpv4-sp-d16
 127              		.type	distance_sensor_configAccuracy, %function
 128              	distance_sensor_configAccuracy:
 129              	.LFB262:
 130              		.loc 1 114 0
 131              		.cfi_startproc
 132              		@ args = 0, pretend = 0, frame = 8
 133              		@ frame_needed = 0, uses_anonymous_args = 0
 134              	.LVL16:
 135 0000 70B5     		push	{r4, r5, r6, lr}
 136              		.cfi_def_cfa_offset 16
 137              		.cfi_offset 4, -16
 138              		.cfi_offset 5, -12
 139              		.cfi_offset 6, -8
 140              		.cfi_offset 14, -4
 141 0002 554D     		ldr	r5, .L29
 142 0004 82B0     		sub	sp, sp, #8
 143              		.cfi_def_cfa_offset 24
 144              		.loc 1 114 0
 145 0006 0C46     		mov	r4, r1
 146 0008 2B68     		ldr	r3, [r5]
 147 000a 0193     		str	r3, [sp, #4]
 148              	.LVL17:
 149              		.loc 1 120 0
 150 000c 0122     		movs	r2, #1
 151 000e 0021     		movs	r1, #0
 152              	.LVL18:
 153              		.loc 1 114 0
 154 0010 0646     		mov	r6, r0
 155              		.loc 1 120 0
 156 0012 FFF7FEFF 		bl	VL53L0X_SetLimitCheckEnable
 157              	.LVL19:
 158              		.loc 1 124 0
 159 0016 0028     		cmp	r0, #0
 160 0018 71D0     		beq	.L28
 161              		.loc 1 131 0
 162 001a 032C     		cmp	r4, #3
 163 001c 03D8     		bhi	.L12
 164 001e DFE804F0 		tbb	[pc, r4]
 165              	.L23:
 166 0022 04       		.byte	(.L18-.L23)/2
 167 0023 51       		.byte	(.L15-.L23)/2
 168 0024 25       		.byte	(.L16-.L23)/2
 169 0025 0B       		.byte	(.L17-.L23)/2
 170              		.p2align 1
 171              	.L12:
ARM GAS  C:\Users\hirtt\AppData\Local\Temp\ccYCkxoh.s 			page 4


 172              		.loc 1 205 0
 173 0026 6FF00300 		mvn	r0, #3
 174              	.LVL20:
 175              	.L18:
 176              		.loc 1 210 0
 177 002a 019A     		ldr	r2, [sp, #4]
 178 002c 2B68     		ldr	r3, [r5]
 179 002e 9A42     		cmp	r2, r3
 180 0030 40F08F80 		bne	.L25
 181 0034 02B0     		add	sp, sp, #8
 182              		.cfi_remember_state
 183              		.cfi_def_cfa_offset 16
 184              		@ sp needed
 185 0036 70BD     		pop	{r4, r5, r6, pc}
 186              	.LVL21:
 187              	.L17:
 188              		.cfi_restore_state
 189              		.loc 1 189 0
 190 0038 0028     		cmp	r0, #0
 191 003a F6D1     		bne	.L18
 192              		.loc 1 190 0
 193 003c 4FF48042 		mov	r2, #16384
 194 0040 0121     		movs	r1, #1
 195 0042 3046     		mov	r0, r6
 196              	.LVL22:
 197 0044 FFF7FEFF 		bl	VL53L0X_SetLimitCheckValue
 198              	.LVL23:
 199              		.loc 1 194 0
 200 0048 0028     		cmp	r0, #0
 201 004a EED1     		bne	.L18
 202              		.loc 1 195 0
 203 004c 0146     		mov	r1, r0
 204 004e 4FF40012 		mov	r2, #2097152
 205 0052 3046     		mov	r0, r6
 206              	.LVL24:
 207 0054 FFF7FEFF 		bl	VL53L0X_SetLimitCheckValue
 208              	.LVL25:
 209              		.loc 1 199 0
 210 0058 0028     		cmp	r0, #0
 211 005a E6D1     		bne	.L18
 212              		.loc 1 200 0
 213 005c 019A     		ldr	r2, [sp, #4]
 214 005e 2B68     		ldr	r3, [r5]
 215 0060 9A42     		cmp	r2, r3
 216 0062 76D1     		bne	.L25
 217 0064 3046     		mov	r0, r6
 218              	.LVL26:
 219 0066 47F23051 		movw	r1, #30000
 220 006a 43E0     		b	.L27
 221              	.LVL27:
 222              	.L16:
 223              		.loc 1 164 0
 224 006c 0028     		cmp	r0, #0
 225 006e DCD1     		bne	.L18
 226              		.loc 1 165 0
 227 0070 41F69912 		movw	r2, #6553
 228 0074 0121     		movs	r1, #1
ARM GAS  C:\Users\hirtt\AppData\Local\Temp\ccYCkxoh.s 			page 5


 229 0076 3046     		mov	r0, r6
 230              	.LVL28:
 231 0078 FFF7FEFF 		bl	VL53L0X_SetLimitCheckValue
 232              	.LVL29:
 233              		.loc 1 169 0
 234 007c 0028     		cmp	r0, #0
 235 007e D4D1     		bne	.L18
 236              		.loc 1 170 0
 237 0080 0146     		mov	r1, r0
 238 0082 4FF47012 		mov	r2, #3932160
 239 0086 3046     		mov	r0, r6
 240              	.LVL30:
 241 0088 FFF7FEFF 		bl	VL53L0X_SetLimitCheckValue
 242              	.LVL31:
 243              		.loc 1 174 0
 244 008c 0028     		cmp	r0, #0
 245 008e CCD1     		bne	.L18
 246              		.loc 1 175 0
 247 0090 48F2E801 		movw	r1, #33000
 248 0094 3046     		mov	r0, r6
 249              	.LVL32:
 250 0096 FFF7FEFF 		bl	VL53L0X_SetMeasurementTimingBudgetMicroSeconds
 251              	.LVL33:
 252              		.loc 1 178 0
 253 009a 0028     		cmp	r0, #0
 254 009c C5D1     		bne	.L18
 255              		.loc 1 179 0
 256 009e 0146     		mov	r1, r0
 257 00a0 1222     		movs	r2, #18
 258 00a2 3046     		mov	r0, r6
 259              	.LVL34:
 260 00a4 FFF7FEFF 		bl	VL53L0X_SetVcselPulsePeriod
 261              	.LVL35:
 262              		.loc 1 182 0
 263 00a8 0028     		cmp	r0, #0
 264 00aa BED1     		bne	.L18
 265              		.loc 1 183 0
 266 00ac 019A     		ldr	r2, [sp, #4]
 267 00ae 2B68     		ldr	r3, [r5]
 268 00b0 9A42     		cmp	r2, r3
 269 00b2 4ED1     		bne	.L25
 270 00b4 3046     		mov	r0, r6
 271              	.LVL36:
 272 00b6 0E22     		movs	r2, #14
 273 00b8 0121     		movs	r1, #1
 274              		.loc 1 210 0
 275 00ba 02B0     		add	sp, sp, #8
 276              		.cfi_remember_state
 277              		.cfi_def_cfa_offset 16
 278              		@ sp needed
 279 00bc BDE87040 		pop	{r4, r5, r6, lr}
 280              		.cfi_restore 14
 281              		.cfi_restore 6
 282              		.cfi_restore 5
 283              		.cfi_restore 4
 284              		.cfi_def_cfa_offset 0
 285              	.LVL37:
ARM GAS  C:\Users\hirtt\AppData\Local\Temp\ccYCkxoh.s 			page 6


 286              		.loc 1 183 0
 287 00c0 FFF7FEBF 		b	VL53L0X_SetVcselPulsePeriod
 288              	.LVL38:
 289              	.L15:
 290              		.cfi_restore_state
 291              		.loc 1 147 0
 292 00c4 0028     		cmp	r0, #0
 293 00c6 B0D1     		bne	.L18
 294              		.loc 1 148 0
 295 00c8 4FF48042 		mov	r2, #16384
 296 00cc 0121     		movs	r1, #1
 297 00ce 3046     		mov	r0, r6
 298              	.LVL39:
 299 00d0 FFF7FEFF 		bl	VL53L0X_SetLimitCheckValue
 300              	.LVL40:
 301              		.loc 1 152 0
 302 00d4 0028     		cmp	r0, #0
 303 00d6 A8D1     		bne	.L18
 304              		.loc 1 153 0
 305 00d8 0146     		mov	r1, r0
 306 00da 4FF49012 		mov	r2, #1179648
 307 00de 3046     		mov	r0, r6
 308              	.LVL41:
 309 00e0 FFF7FEFF 		bl	VL53L0X_SetLimitCheckValue
 310              	.LVL42:
 311              		.loc 1 157 0
 312 00e4 0028     		cmp	r0, #0
 313 00e6 A0D1     		bne	.L18
 314              		.loc 1 158 0
 315 00e8 019A     		ldr	r2, [sp, #4]
 316 00ea 2B68     		ldr	r3, [r5]
 317 00ec 9A42     		cmp	r2, r3
 318 00ee 30D1     		bne	.L25
 319 00f0 1A49     		ldr	r1, .L29+4
 320 00f2 3046     		mov	r0, r6
 321              	.LVL43:
 322              	.L27:
 323              		.loc 1 210 0
 324 00f4 02B0     		add	sp, sp, #8
 325              		.cfi_remember_state
 326              		.cfi_def_cfa_offset 16
 327              		@ sp needed
 328 00f6 BDE87040 		pop	{r4, r5, r6, lr}
 329              		.cfi_restore 14
 330              		.cfi_restore 6
 331              		.cfi_restore 5
 332              		.cfi_restore 4
 333              		.cfi_def_cfa_offset 0
 334              		.loc 1 200 0
 335 00fa FFF7FEBF 		b	VL53L0X_SetMeasurementTimingBudgetMicroSeconds
 336              	.LVL44:
 337              	.L28:
 338              		.cfi_restore_state
 339              		.loc 1 125 0
 340 00fe 0122     		movs	r2, #1
 341 0100 1146     		mov	r1, r2
 342 0102 3046     		mov	r0, r6
ARM GAS  C:\Users\hirtt\AppData\Local\Temp\ccYCkxoh.s 			page 7


 343              	.LVL45:
 344 0104 FFF7FEFF 		bl	VL53L0X_SetLimitCheckEnable
 345              	.LVL46:
 346              		.loc 1 131 0
 347 0108 032C     		cmp	r4, #3
 348 010a 8CD8     		bhi	.L12
 349 010c 01A3     		adr	r3, .L14
 350 010e 53F824F0 		ldr	pc, [r3, r4, lsl #2]
 351 0112 00BF     		.p2align 2
 352              	.L14:
 353 0114 25010000 		.word	.L13+1
 354 0118 C5000000 		.word	.L15+1
 355 011c 6D000000 		.word	.L16+1
 356 0120 39000000 		.word	.L17+1
 357              		.p2align 1
 358              	.L13:
 359              		.loc 1 134 0
 360 0124 0028     		cmp	r0, #0
 361 0126 80D1     		bne	.L18
 362              		.loc 1 135 0
 363 0128 0122     		movs	r2, #1
 364 012a 0321     		movs	r1, #3
 365 012c 3046     		mov	r0, r6
 366              	.LVL47:
 367 012e FFF7FEFF 		bl	VL53L0X_SetLimitCheckEnable
 368              	.LVL48:
 369              		.loc 1 139 0
 370 0132 0028     		cmp	r0, #0
 371 0134 7FF479AF 		bne	.L18
 372              		.loc 1 140 0
 373 0138 019A     		ldr	r2, [sp, #4]
 374 013a 2B68     		ldr	r3, [r5]
 375 013c 9A42     		cmp	r2, r3
 376 013e 08D1     		bne	.L25
 377 0140 3046     		mov	r0, r6
 378              	.LVL49:
 379 0142 40F6D402 		movw	r2, #2260
 380 0146 0321     		movs	r1, #3
 381              		.loc 1 210 0
 382 0148 02B0     		add	sp, sp, #8
 383              		.cfi_remember_state
 384              		.cfi_def_cfa_offset 16
 385              		@ sp needed
 386 014a BDE87040 		pop	{r4, r5, r6, lr}
 387              		.cfi_restore 14
 388              		.cfi_restore 6
 389              		.cfi_restore 5
 390              		.cfi_restore 4
 391              		.cfi_def_cfa_offset 0
 392              	.LVL50:
 393              		.loc 1 140 0
 394 014e FFF7FEBF 		b	VL53L0X_SetLimitCheckValue
 395              	.LVL51:
 396              	.L25:
 397              		.cfi_restore_state
 398              		.loc 1 210 0
 399 0152 FFF7FEFF 		bl	__stack_chk_fail
ARM GAS  C:\Users\hirtt\AppData\Local\Temp\ccYCkxoh.s 			page 8


 400              	.LVL52:
 401              	.L30:
 402 0156 00BF     		.align	2
 403              	.L29:
 404 0158 00000000 		.word	__stack_chk_guard
 405 015c 400D0300 		.word	200000
 406              		.cfi_endproc
 407              	.LFE262:
 408              		.size	distance_sensor_configAccuracy, .-distance_sensor_configAccuracy
 409              		.section	.text.distance_sensor_startMeasure,"ax",%progbits
 410              		.align	1
 411              		.p2align 4,,15
 412              		.global	distance_sensor_startMeasure
 413              		.syntax unified
 414              		.thumb
 415              		.thumb_func
 416              		.fpu fpv4-sp-d16
 417              		.type	distance_sensor_startMeasure, %function
 418              	distance_sensor_startMeasure:
 419              	.LFB263:
 420              		.loc 1 213 0
 421              		.cfi_startproc
 422              		@ args = 0, pretend = 0, frame = 8
 423              		@ frame_needed = 0, uses_anonymous_args = 0
 424              	.LVL53:
 425 0000 30B5     		push	{r4, r5, lr}
 426              		.cfi_def_cfa_offset 12
 427              		.cfi_offset 4, -12
 428              		.cfi_offset 5, -8
 429              		.cfi_offset 14, -4
 430 0002 0C4C     		ldr	r4, .L38
 431 0004 83B0     		sub	sp, sp, #12
 432              		.cfi_def_cfa_offset 24
 433              		.loc 1 213 0
 434 0006 2368     		ldr	r3, [r4]
 435 0008 0193     		str	r3, [sp, #4]
 436              	.LVL54:
 437 000a 0546     		mov	r5, r0
 438              		.loc 1 217 0
 439 000c FFF7FEFF 		bl	VL53L0X_SetDeviceMode
 440              	.LVL55:
 441              		.loc 1 220 0
 442 0010 019A     		ldr	r2, [sp, #4]
 443 0012 2368     		ldr	r3, [r4]
 444              		.loc 1 219 0
 445 0014 18B1     		cbz	r0, .L37
 446              	.LVL56:
 447              		.loc 1 224 0
 448 0016 9A42     		cmp	r2, r3
 449 0018 09D1     		bne	.L36
 450 001a 03B0     		add	sp, sp, #12
 451              		.cfi_remember_state
 452              		.cfi_def_cfa_offset 12
 453              		@ sp needed
 454 001c 30BD     		pop	{r4, r5, pc}
 455              	.LVL57:
 456              	.L37:
ARM GAS  C:\Users\hirtt\AppData\Local\Temp\ccYCkxoh.s 			page 9


 457              		.cfi_restore_state
 458              		.loc 1 220 0
 459 001e 9A42     		cmp	r2, r3
 460 0020 05D1     		bne	.L36
 461 0022 2846     		mov	r0, r5
 462              	.LVL58:
 463              		.loc 1 224 0
 464 0024 03B0     		add	sp, sp, #12
 465              		.cfi_remember_state
 466              		.cfi_def_cfa_offset 12
 467              		@ sp needed
 468 0026 BDE83040 		pop	{r4, r5, lr}
 469              		.cfi_restore 14
 470              		.cfi_restore 5
 471              		.cfi_restore 4
 472              		.cfi_def_cfa_offset 0
 473              	.LVL59:
 474              		.loc 1 220 0
 475 002a FFF7FEBF 		b	VL53L0X_StartMeasurement
 476              	.LVL60:
 477              	.L36:
 478              		.cfi_restore_state
 479              		.loc 1 224 0
 480 002e FFF7FEFF 		bl	__stack_chk_fail
 481              	.LVL61:
 482              	.L39:
 483 0032 00BF     		.align	2
 484              	.L38:
 485 0034 00000000 		.word	__stack_chk_guard
 486              		.cfi_endproc
 487              	.LFE263:
 488              		.size	distance_sensor_startMeasure, .-distance_sensor_startMeasure
 489              		.section	.text.VL53L0XThd,"ax",%progbits
 490              		.align	1
 491              		.p2align 4,,15
 492              		.syntax unified
 493              		.thumb
 494              		.thumb_func
 495              		.fpu fpv4-sp-d16
 496              		.type	VL53L0XThd, %function
 497              	VL53L0XThd:
 498              	.LFB260:
 499              		.loc 1 28 0
 500              		.cfi_startproc
 501              		@ args = 0, pretend = 0, frame = 8
 502              		@ frame_needed = 0, uses_anonymous_args = 0
 503              	.LVL62:
 504 0000 2DE9F043 		push	{r4, r5, r6, r7, r8, r9, lr}
 505              		.cfi_def_cfa_offset 28
 506              		.cfi_offset 4, -28
 507              		.cfi_offset 5, -24
 508              		.cfi_offset 6, -20
 509              		.cfi_offset 7, -16
 510              		.cfi_offset 8, -12
 511              		.cfi_offset 9, -8
 512              		.cfi_offset 14, -4
 513              	.LBB16:
ARM GAS  C:\Users\hirtt\AppData\Local\Temp\ccYCkxoh.s 			page 10


 514              	.LBB17:
 515              		.file 2 "../../lib/e-puck2_main-processor/ChibiOS//os/rt/include/chregistry.h"
 516              		.loc 2 135 0
 517 0004 244C     		ldr	r4, .L55
 518              	.LBE17:
 519              	.LBE16:
 520              		.loc 1 28 0
 521 0006 DFF8A880 		ldr	r8, .L55+24
 522              	.LBB20:
 523              	.LBB18:
 524              		.loc 2 135 0
 525 000a A369     		ldr	r3, [r4, #24]
 526              	.LBE18:
 527              	.LBE20:
 528              		.loc 1 36 0
 529 000c 234E     		ldr	r6, .L55+4
 530              	.LBB21:
 531              	.LBB19:
 532              		.loc 2 135 0
 533 000e 244A     		ldr	r2, .L55+8
 534 0010 9A61     		str	r2, [r3, #24]
 535              	.LBE19:
 536              	.LBE21:
 537              		.loc 1 28 0
 538 0012 83B0     		sub	sp, sp, #12
 539              		.cfi_def_cfa_offset 40
 540              		.loc 1 28 0
 541 0014 D8F80030 		ldr	r3, [r8]
 542 0018 0193     		str	r3, [sp, #4]
 543              	.LVL63:
 544              		.loc 1 38 0
 545 001a 3046     		mov	r0, r6
 546              	.LVL64:
 547              		.loc 1 36 0
 548 001c 5223     		movs	r3, #82
 549 001e 86F8BF31 		strb	r3, [r6, #447]
 550              		.loc 1 38 0
 551 0022 FFF7FEFF 		bl	distance_sensor_init
 552              	.LVL65:
 553              		.loc 1 40 0
 554 0026 50B9     		cbnz	r0, .L41
 555              		.loc 1 41 0
 556 0028 0146     		mov	r1, r0
 557 002a 3046     		mov	r0, r6
 558              	.LVL66:
 559 002c FFF7FEFF 		bl	distance_sensor_configAccuracy
 560              	.LVL67:
 561              		.loc 1 44 0
 562 0030 0121     		movs	r1, #1
 563 0032 3046     		mov	r0, r6
 564 0034 FFF7FEFF 		bl	distance_sensor_startMeasure
 565              	.LVL68:
 566              		.loc 1 47 0
 567 0038 1A4B     		ldr	r3, .L55+12
 568 003a 0122     		movs	r2, #1
 569 003c 1A70     		strb	r2, [r3]
 570              	.L41:
ARM GAS  C:\Users\hirtt\AppData\Local\Temp\ccYCkxoh.s 			page 11


 571              		.loc 1 61 0
 572 003e 1A4D     		ldr	r5, .L55+16
 573              		.loc 1 62 0
 574 0040 184F     		ldr	r7, .L55+12
 575              	.LBB22:
 576              	.LBB23:
 577              		.loc 1 227 0
 578 0042 DFF87090 		ldr	r9, .L55+28
 579              	.L42:
 580              	.LBE23:
 581              	.LBE22:
 582              	.LBB25:
 583              	.LBB26:
 584              		.file 3 "../../lib/e-puck2_main-processor/ChibiOS//os/rt/include/chthreads.h"
 585              		.loc 3 233 0
 586 0046 A369     		ldr	r3, [r4, #24]
 587              	.LBE26:
 588              	.LBE25:
 589              		.loc 1 51 0
 590 0048 93F82130 		ldrb	r3, [r3, #33]	@ zero_extendqisi2
 591 004c 5B07     		lsls	r3, r3, #29
 592 004e 0BD4     		bmi	.L52
 593              	.L46:
 594              		.loc 1 61 0
 595 0050 2B78     		ldrb	r3, [r5]	@ zero_extendqisi2
 596 0052 8BB9     		cbnz	r3, .L43
 597              		.loc 1 62 0
 598 0054 3B78     		ldrb	r3, [r7]	@ zero_extendqisi2
 599 0056 A3B9     		cbnz	r3, .L53
 600              	.L44:
 601              		.loc 1 66 0
 602 0058 6420     		movs	r0, #100
 603 005a FFF7FEFF 		bl	chThdSleep
 604              	.LVL69:
 605              	.LBB28:
 606              	.LBB27:
 607              		.loc 3 233 0
 608 005e A369     		ldr	r3, [r4, #24]
 609              	.LBE27:
 610              	.LBE28:
 611              		.loc 1 51 0
 612 0060 93F82130 		ldrb	r3, [r3, #33]	@ zero_extendqisi2
 613 0064 5B07     		lsls	r3, r3, #29
 614 0066 F3D5     		bpl	.L46
 615              	.L52:
 616              		.loc 1 71 0
 617 0068 019A     		ldr	r2, [sp, #4]
 618 006a D8F80030 		ldr	r3, [r8]
 619 006e 9A42     		cmp	r2, r3
 620 0070 10D1     		bne	.L54
 621 0072 03B0     		add	sp, sp, #12
 622              		.cfi_remember_state
 623              		.cfi_def_cfa_offset 28
 624              		@ sp needed
 625 0074 BDE8F083 		pop	{r4, r5, r6, r7, r8, r9, pc}
 626              	.L43:
 627              		.cfi_restore_state
ARM GAS  C:\Users\hirtt\AppData\Local\Temp\ccYCkxoh.s 			page 12


 628              		.loc 1 68 0
 629 0078 4FF47A70 		mov	r0, #1000
 630 007c FFF7FEFF 		bl	chThdSleep
 631              	.LVL70:
 632 0080 E1E7     		b	.L42
 633              	.L53:
 634              	.LVL71:
 635              	.LBB29:
 636              	.LBB24:
 637              		.loc 1 227 0
 638 0082 4946     		mov	r1, r9
 639 0084 0548     		ldr	r0, .L55+4
 640 0086 FFF7FEFF 		bl	VL53L0X_GetRangingMeasurementData
 641              	.LVL72:
 642              	.LBE24:
 643              	.LBE29:
 644              		.loc 1 64 0
 645 008a 084B     		ldr	r3, .L55+20
 646 008c B6F85820 		ldrh	r2, [r6, #88]
 647 0090 1A80     		strh	r2, [r3]	@ movhi
 648 0092 E1E7     		b	.L44
 649              	.L54:
 650              		.loc 1 71 0
 651 0094 FFF7FEFF 		bl	__stack_chk_fail
 652              	.LVL73:
 653              	.L56:
 654              		.align	2
 655              	.L55:
 656 0098 00000000 		.word	ch
 657 009c 00000000 		.word	.LANCHOR0
 658 00a0 00000000 		.word	.LC0
 659 00a4 00000000 		.word	.LANCHOR1
 660 00a8 00000000 		.word	.LANCHOR2
 661 00ac 00000000 		.word	.LANCHOR3
 662 00b0 00000000 		.word	__stack_chk_guard
 663 00b4 50000000 		.word	.LANCHOR0+80
 664              		.cfi_endproc
 665              	.LFE260:
 666              		.size	VL53L0XThd, .-VL53L0XThd
 667              		.section	.text.distance_sensor_getLastMeasure,"ax",%progbits
 668              		.align	1
 669              		.p2align 4,,15
 670              		.global	distance_sensor_getLastMeasure
 671              		.syntax unified
 672              		.thumb
 673              		.thumb_func
 674              		.fpu fpv4-sp-d16
 675              		.type	distance_sensor_getLastMeasure, %function
 676              	distance_sensor_getLastMeasure:
 677              	.LFB264:
 678              		.loc 1 226 0
 679              		.cfi_startproc
 680              		@ args = 0, pretend = 0, frame = 8
 681              		@ frame_needed = 0, uses_anonymous_args = 0
 682              	.LVL74:
 683 0000 00B5     		push	{lr}
 684              		.cfi_def_cfa_offset 4
ARM GAS  C:\Users\hirtt\AppData\Local\Temp\ccYCkxoh.s 			page 13


 685              		.cfi_offset 14, -4
 686 0002 084B     		ldr	r3, .L62
 687 0004 83B0     		sub	sp, sp, #12
 688              		.cfi_def_cfa_offset 16
 689              		.loc 1 226 0
 690 0006 1A68     		ldr	r2, [r3]
 691 0008 0192     		str	r2, [sp, #4]
 692              		.loc 1 227 0
 693 000a 019A     		ldr	r2, [sp, #4]
 694 000c 1B68     		ldr	r3, [r3]
 695 000e 9A42     		cmp	r2, r3
 696 0010 06D1     		bne	.L61
 697 0012 0146     		mov	r1, r0
 698 0014 5031     		adds	r1, r1, #80
 699              		.loc 1 229 0
 700 0016 03B0     		add	sp, sp, #12
 701              		.cfi_remember_state
 702              		.cfi_def_cfa_offset 4
 703              		@ sp needed
 704 0018 5DF804EB 		ldr	lr, [sp], #4
 705              		.cfi_restore 14
 706              		.cfi_def_cfa_offset 0
 707              		.loc 1 227 0
 708 001c FFF7FEBF 		b	VL53L0X_GetRangingMeasurementData
 709              	.LVL75:
 710              	.L61:
 711              		.cfi_restore_state
 712 0020 FFF7FEFF 		bl	__stack_chk_fail
 713              	.LVL76:
 714              	.L63:
 715              		.align	2
 716              	.L62:
 717 0024 00000000 		.word	__stack_chk_guard
 718              		.cfi_endproc
 719              	.LFE264:
 720              		.size	distance_sensor_getLastMeasure, .-distance_sensor_getLastMeasure
 721              		.section	.text.distance_sensor_stopMeasure,"ax",%progbits
 722              		.align	1
 723              		.p2align 4,,15
 724              		.global	distance_sensor_stopMeasure
 725              		.syntax unified
 726              		.thumb
 727              		.thumb_func
 728              		.fpu fpv4-sp-d16
 729              		.type	distance_sensor_stopMeasure, %function
 730              	distance_sensor_stopMeasure:
 731              	.LFB265:
 732              		.loc 1 231 0
 733              		.cfi_startproc
 734              		@ args = 0, pretend = 0, frame = 8
 735              		@ frame_needed = 0, uses_anonymous_args = 0
 736              	.LVL77:
 737 0000 00B5     		push	{lr}
 738              		.cfi_def_cfa_offset 4
 739              		.cfi_offset 14, -4
 740 0002 074B     		ldr	r3, .L69
 741 0004 83B0     		sub	sp, sp, #12
ARM GAS  C:\Users\hirtt\AppData\Local\Temp\ccYCkxoh.s 			page 14


 742              		.cfi_def_cfa_offset 16
 743              		.loc 1 231 0
 744 0006 1A68     		ldr	r2, [r3]
 745 0008 0192     		str	r2, [sp, #4]
 746              		.loc 1 232 0
 747 000a 019A     		ldr	r2, [sp, #4]
 748 000c 1B68     		ldr	r3, [r3]
 749 000e 9A42     		cmp	r2, r3
 750 0010 04D1     		bne	.L68
 751              		.loc 1 233 0
 752 0012 03B0     		add	sp, sp, #12
 753              		.cfi_remember_state
 754              		.cfi_def_cfa_offset 4
 755              		@ sp needed
 756 0014 5DF804EB 		ldr	lr, [sp], #4
 757              		.cfi_restore 14
 758              		.cfi_def_cfa_offset 0
 759              		.loc 1 232 0
 760 0018 FFF7FEBF 		b	VL53L0X_StopMeasurement
 761              	.LVL78:
 762              	.L68:
 763              		.cfi_restore_state
 764 001c FFF7FEFF 		bl	__stack_chk_fail
 765              	.LVL79:
 766              	.L70:
 767              		.align	2
 768              	.L69:
 769 0020 00000000 		.word	__stack_chk_guard
 770              		.cfi_endproc
 771              	.LFE265:
 772              		.size	distance_sensor_stopMeasure, .-distance_sensor_stopMeasure
 773              		.section	.text.distance_sensor_start,"ax",%progbits
 774              		.align	1
 775              		.p2align 4,,15
 776              		.global	distance_sensor_start
 777              		.syntax unified
 778              		.thumb
 779              		.thumb_func
 780              		.fpu fpv4-sp-d16
 781              		.type	distance_sensor_start, %function
 782              	distance_sensor_start:
 783              	.LFB266:
 784              		.loc 1 235 0
 785              		.cfi_startproc
 786              		@ args = 0, pretend = 0, frame = 8
 787              		@ frame_needed = 0, uses_anonymous_args = 0
 788 0000 30B5     		push	{r4, r5, lr}
 789              		.cfi_def_cfa_offset 12
 790              		.cfi_offset 4, -12
 791              		.cfi_offset 5, -8
 792              		.cfi_offset 14, -4
 793              		.loc 1 237 0
 794 0002 0D4B     		ldr	r3, .L76
 795              		.loc 1 235 0
 796 0004 0D4C     		ldr	r4, .L76+4
 797              		.loc 1 237 0
 798 0006 1D78     		ldrb	r5, [r3]	@ zero_extendqisi2
ARM GAS  C:\Users\hirtt\AppData\Local\Temp\ccYCkxoh.s 			page 15


 799              		.loc 1 235 0
 800 0008 2368     		ldr	r3, [r4]
 801 000a 85B0     		sub	sp, sp, #20
 802              		.cfi_def_cfa_offset 32
 803              		.loc 1 235 0
 804 000c 0393     		str	r3, [sp, #12]
 805              		.loc 1 237 0
 806 000e 5DB9     		cbnz	r5, .L71
 807              		.loc 1 241 0
 808 0010 FFF7FEFF 		bl	i2c_start
 809              	.LVL80:
 810              		.loc 1 243 0
 811 0014 0A4B     		ldr	r3, .L76+8
 812 0016 0095     		str	r5, [sp]
 813 0018 0A48     		ldr	r0, .L76+12
 814 001a 4022     		movs	r2, #64
 815 001c 4FF45E71 		mov	r1, #888
 816 0020 FFF7FEFF 		bl	chThdCreateStatic
 817              	.LVL81:
 818 0024 084B     		ldr	r3, .L76+16
 819 0026 1860     		str	r0, [r3]
 820              	.L71:
 821              		.loc 1 245 0
 822 0028 039A     		ldr	r2, [sp, #12]
 823 002a 2368     		ldr	r3, [r4]
 824 002c 9A42     		cmp	r2, r3
 825 002e 01D1     		bne	.L75
 826 0030 05B0     		add	sp, sp, #20
 827              		.cfi_remember_state
 828              		.cfi_def_cfa_offset 12
 829              		@ sp needed
 830 0032 30BD     		pop	{r4, r5, pc}
 831              	.L75:
 832              		.cfi_restore_state
 833 0034 FFF7FEFF 		bl	__stack_chk_fail
 834              	.LVL82:
 835              	.L77:
 836              		.align	2
 837              	.L76:
 838 0038 00000000 		.word	.LANCHOR1
 839 003c 00000000 		.word	__stack_chk_guard
 840 0040 00000000 		.word	VL53L0XThd
 841 0044 00000000 		.word	.LANCHOR4
 842 0048 00000000 		.word	.LANCHOR5
 843              		.cfi_endproc
 844              	.LFE266:
 845              		.size	distance_sensor_start, .-distance_sensor_start
 846              		.section	.text.distance_sensor_stop,"ax",%progbits
 847              		.align	1
 848              		.p2align 4,,15
 849              		.global	distance_sensor_stop
 850              		.syntax unified
 851              		.thumb
 852              		.thumb_func
 853              		.fpu fpv4-sp-d16
 854              		.type	distance_sensor_stop, %function
 855              	distance_sensor_stop:
ARM GAS  C:\Users\hirtt\AppData\Local\Temp\ccYCkxoh.s 			page 16


 856              	.LFB267:
 857              		.loc 1 247 0
 858              		.cfi_startproc
 859              		@ args = 0, pretend = 0, frame = 8
 860              		@ frame_needed = 0, uses_anonymous_args = 0
 861 0000 30B5     		push	{r4, r5, lr}
 862              		.cfi_def_cfa_offset 12
 863              		.cfi_offset 4, -12
 864              		.cfi_offset 5, -8
 865              		.cfi_offset 14, -4
 866              		.loc 1 248 0
 867 0002 0B4C     		ldr	r4, .L82
 868              		.loc 1 247 0
 869 0004 0B4D     		ldr	r5, .L82+4
 870              		.loc 1 248 0
 871 0006 2068     		ldr	r0, [r4]
 872              		.loc 1 247 0
 873 0008 2B68     		ldr	r3, [r5]
 874 000a 83B0     		sub	sp, sp, #12
 875              		.cfi_def_cfa_offset 24
 876              		.loc 1 247 0
 877 000c 0193     		str	r3, [sp, #4]
 878              		.loc 1 248 0
 879 000e FFF7FEFF 		bl	chThdTerminate
 880              	.LVL83:
 881              		.loc 1 249 0
 882 0012 2068     		ldr	r0, [r4]
 883 0014 FFF7FEFF 		bl	chThdWait
 884              	.LVL84:
 885              		.loc 1 252 0
 886 0018 0199     		ldr	r1, [sp, #4]
 887 001a 2A68     		ldr	r2, [r5]
 888              		.loc 1 251 0
 889 001c 0648     		ldr	r0, .L82+8
 890              		.loc 1 250 0
 891 001e 0023     		movs	r3, #0
 892              		.loc 1 252 0
 893 0020 9142     		cmp	r1, r2
 894              		.loc 1 250 0
 895 0022 2360     		str	r3, [r4]
 896              		.loc 1 251 0
 897 0024 0370     		strb	r3, [r0]
 898              		.loc 1 252 0
 899 0026 01D1     		bne	.L81
 900 0028 03B0     		add	sp, sp, #12
 901              		.cfi_remember_state
 902              		.cfi_def_cfa_offset 12
 903              		@ sp needed
 904 002a 30BD     		pop	{r4, r5, pc}
 905              	.L81:
 906              		.cfi_restore_state
 907 002c FFF7FEFF 		bl	__stack_chk_fail
 908              	.LVL85:
 909              	.L83:
 910              		.align	2
 911              	.L82:
 912 0030 00000000 		.word	.LANCHOR5
ARM GAS  C:\Users\hirtt\AppData\Local\Temp\ccYCkxoh.s 			page 17


 913 0034 00000000 		.word	__stack_chk_guard
 914 0038 00000000 		.word	.LANCHOR1
 915              		.cfi_endproc
 916              	.LFE267:
 917              		.size	distance_sensor_stop, .-distance_sensor_stop
 918              		.section	.text.distance_sensor_pause,"ax",%progbits
 919              		.align	1
 920              		.p2align 4,,15
 921              		.global	distance_sensor_pause
 922              		.syntax unified
 923              		.thumb
 924              		.thumb_func
 925              		.fpu fpv4-sp-d16
 926              		.type	distance_sensor_pause, %function
 927              	distance_sensor_pause:
 928              	.LFB268:
 929              		.loc 1 254 0
 930              		.cfi_startproc
 931              		@ args = 0, pretend = 0, frame = 8
 932              		@ frame_needed = 0, uses_anonymous_args = 0
 933 0000 00B5     		push	{lr}
 934              		.cfi_def_cfa_offset 4
 935              		.cfi_offset 14, -4
 936 0002 084B     		ldr	r3, .L88
 937              		.loc 1 255 0
 938 0004 0849     		ldr	r1, .L88+4
 939              		.loc 1 254 0
 940 0006 1A68     		ldr	r2, [r3]
 941 0008 83B0     		sub	sp, sp, #12
 942              		.cfi_def_cfa_offset 16
 943              		.loc 1 255 0
 944 000a 0120     		movs	r0, #1
 945              		.loc 1 254 0
 946 000c 0192     		str	r2, [sp, #4]
 947              		.loc 1 256 0
 948 000e 019A     		ldr	r2, [sp, #4]
 949 0010 1B68     		ldr	r3, [r3]
 950              		.loc 1 255 0
 951 0012 0870     		strb	r0, [r1]
 952              		.loc 1 256 0
 953 0014 9A42     		cmp	r2, r3
 954 0016 02D1     		bne	.L87
 955 0018 03B0     		add	sp, sp, #12
 956              		.cfi_remember_state
 957              		.cfi_def_cfa_offset 4
 958              		@ sp needed
 959 001a 5DF804FB 		ldr	pc, [sp], #4
 960              	.L87:
 961              		.cfi_restore_state
 962 001e FFF7FEFF 		bl	__stack_chk_fail
 963              	.LVL86:
 964              	.L89:
 965 0022 00BF     		.align	2
 966              	.L88:
 967 0024 00000000 		.word	__stack_chk_guard
 968 0028 00000000 		.word	.LANCHOR2
 969              		.cfi_endproc
ARM GAS  C:\Users\hirtt\AppData\Local\Temp\ccYCkxoh.s 			page 18


 970              	.LFE268:
 971              		.size	distance_sensor_pause, .-distance_sensor_pause
 972              		.section	.text.distance_sensor_resume,"ax",%progbits
 973              		.align	1
 974              		.p2align 4,,15
 975              		.global	distance_sensor_resume
 976              		.syntax unified
 977              		.thumb
 978              		.thumb_func
 979              		.fpu fpv4-sp-d16
 980              		.type	distance_sensor_resume, %function
 981              	distance_sensor_resume:
 982              	.LFB269:
 983              		.loc 1 258 0
 984              		.cfi_startproc
 985              		@ args = 0, pretend = 0, frame = 8
 986              		@ frame_needed = 0, uses_anonymous_args = 0
 987 0000 00B5     		push	{lr}
 988              		.cfi_def_cfa_offset 4
 989              		.cfi_offset 14, -4
 990 0002 084B     		ldr	r3, .L94
 991              		.loc 1 259 0
 992 0004 0849     		ldr	r1, .L94+4
 993              		.loc 1 258 0
 994 0006 1A68     		ldr	r2, [r3]
 995 0008 83B0     		sub	sp, sp, #12
 996              		.cfi_def_cfa_offset 16
 997              		.loc 1 259 0
 998 000a 0020     		movs	r0, #0
 999              		.loc 1 258 0
 1000 000c 0192     		str	r2, [sp, #4]
 1001              		.loc 1 260 0
 1002 000e 019A     		ldr	r2, [sp, #4]
 1003 0010 1B68     		ldr	r3, [r3]
 1004              		.loc 1 259 0
 1005 0012 0870     		strb	r0, [r1]
 1006              		.loc 1 260 0
 1007 0014 9A42     		cmp	r2, r3
 1008 0016 02D1     		bne	.L93
 1009 0018 03B0     		add	sp, sp, #12
 1010              		.cfi_remember_state
 1011              		.cfi_def_cfa_offset 4
 1012              		@ sp needed
 1013 001a 5DF804FB 		ldr	pc, [sp], #4
 1014              	.L93:
 1015              		.cfi_restore_state
 1016 001e FFF7FEFF 		bl	__stack_chk_fail
 1017              	.LVL87:
 1018              	.L95:
 1019 0022 00BF     		.align	2
 1020              	.L94:
 1021 0024 00000000 		.word	__stack_chk_guard
 1022 0028 00000000 		.word	.LANCHOR2
 1023              		.cfi_endproc
 1024              	.LFE269:
 1025              		.size	distance_sensor_resume, .-distance_sensor_resume
 1026              		.section	.text.distance_sensor_get_dist_mm,"ax",%progbits
ARM GAS  C:\Users\hirtt\AppData\Local\Temp\ccYCkxoh.s 			page 19


 1027              		.align	1
 1028              		.p2align 4,,15
 1029              		.global	distance_sensor_get_dist_mm
 1030              		.syntax unified
 1031              		.thumb
 1032              		.thumb_func
 1033              		.fpu fpv4-sp-d16
 1034              		.type	distance_sensor_get_dist_mm, %function
 1035              	distance_sensor_get_dist_mm:
 1036              	.LFB270:
 1037              		.loc 1 262 0
 1038              		.cfi_startproc
 1039              		@ args = 0, pretend = 0, frame = 8
 1040              		@ frame_needed = 0, uses_anonymous_args = 0
 1041 0000 00B5     		push	{lr}
 1042              		.cfi_def_cfa_offset 4
 1043              		.cfi_offset 14, -4
 1044 0002 074B     		ldr	r3, .L100
 1045              		.loc 1 263 0
 1046 0004 0749     		ldr	r1, .L100+4
 1047              		.loc 1 262 0
 1048 0006 1A68     		ldr	r2, [r3]
 1049              		.loc 1 264 0
 1050 0008 0888     		ldrh	r0, [r1]
 1051              		.loc 1 262 0
 1052 000a 83B0     		sub	sp, sp, #12
 1053              		.cfi_def_cfa_offset 16
 1054              		.loc 1 262 0
 1055 000c 0192     		str	r2, [sp, #4]
 1056              		.loc 1 264 0
 1057 000e 019A     		ldr	r2, [sp, #4]
 1058 0010 1B68     		ldr	r3, [r3]
 1059 0012 9A42     		cmp	r2, r3
 1060 0014 02D1     		bne	.L99
 1061 0016 03B0     		add	sp, sp, #12
 1062              		.cfi_remember_state
 1063              		.cfi_def_cfa_offset 4
 1064              		@ sp needed
 1065 0018 5DF804FB 		ldr	pc, [sp], #4
 1066              	.L99:
 1067              		.cfi_restore_state
 1068 001c FFF7FEFF 		bl	__stack_chk_fail
 1069              	.LVL88:
 1070              	.L101:
 1071              		.align	2
 1072              	.L100:
 1073 0020 00000000 		.word	__stack_chk_guard
 1074 0024 00000000 		.word	.LANCHOR3
 1075              		.cfi_endproc
 1076              	.LFE270:
 1077              		.size	distance_sensor_get_dist_mm, .-distance_sensor_get_dist_mm
 1078              		.section	.bss.VL53L0X_configured,"aw",%nobits
 1079              		.set	.LANCHOR1,. + 0
 1080              		.type	VL53L0X_configured, %object
 1081              		.size	VL53L0X_configured, 1
 1082              	VL53L0X_configured:
 1083 0000 00       		.space	1
ARM GAS  C:\Users\hirtt\AppData\Local\Temp\ccYCkxoh.s 			page 20


 1084              		.section	.bss.device.12790,"aw",%nobits
 1085              		.align	2
 1086              		.set	.LANCHOR0,. + 0
 1087              		.type	device.12790, %object
 1088              		.size	device.12790, 448
 1089              	device.12790:
 1090 0000 00000000 		.space	448
 1090      00000000 
 1090      00000000 
 1090      00000000 
 1090      00000000 
 1091              		.section	.bss.distThd,"aw",%nobits
 1092              		.align	2
 1093              		.set	.LANCHOR5,. + 0
 1094              		.type	distThd, %object
 1095              		.size	distThd, 4
 1096              	distThd:
 1097 0000 00000000 		.space	4
 1098              		.section	.bss.dist_mm,"aw",%nobits
 1099              		.align	1
 1100              		.set	.LANCHOR3,. + 0
 1101              		.type	dist_mm, %object
 1102              		.size	dist_mm, 2
 1103              	dist_mm:
 1104 0000 0000     		.space	2
 1105              		.section	.bss.suspended,"aw",%nobits
 1106              		.set	.LANCHOR2,. + 0
 1107              		.type	suspended, %object
 1108              		.size	suspended, 1
 1109              	suspended:
 1110 0000 00       		.space	1
 1111              		.section	.bss.waVL53L0XThd,"aw",%nobits
 1112              		.align	3
 1113              		.set	.LANCHOR4,. + 0
 1114              		.type	waVL53L0XThd, %object
 1115              		.size	waVL53L0XThd, 888
 1116              	waVL53L0XThd:
 1117 0000 00000000 		.space	888
 1117      00000000 
 1117      00000000 
 1117      00000000 
 1117      00000000 
 1118              		.section	.rodata.VL53L0XThd.str1.4,"aMS",%progbits,1
 1119              		.align	2
 1120              	.LC0:
 1121 0000 564C3533 		.ascii	"VL53L0x Thd\000"
 1121      4C307820 
 1121      54686400 
 1122              		.text
 1123              	.Letext0:
 1124              		.file 4 "c:\\users\\hirtt\\documents\\eclipse_e-puck2_win32_29_jan_2020\\eclipse_e-puck2\\tools\\g
 1125              		.file 5 "c:\\users\\hirtt\\documents\\eclipse_e-puck2_win32_29_jan_2020\\eclipse_e-puck2\\tools\\g
 1126              		.file 6 "c:\\users\\hirtt\\documents\\eclipse_e-puck2_win32_29_jan_2020\\eclipse_e-puck2\\tools\\g
 1127              		.file 7 "../../lib/e-puck2_main-processor/src/sensors/VL53L0X/Api/core/inc/vl53l0x_types.h"
 1128              		.file 8 "../../lib/e-puck2_main-processor/src/sensors/VL53L0X/Api/core/inc/vl53l0x_device.h"
 1129              		.file 9 "../../lib/e-puck2_main-processor/src/sensors/VL53L0X/Api/core/inc/vl53l0x_def.h"
 1130              		.file 10 "c:\\users\\hirtt\\documents\\eclipse_e-puck2_win32_29_jan_2020\\eclipse_e-puck2\\tools\\
ARM GAS  C:\Users\hirtt\AppData\Local\Temp\ccYCkxoh.s 			page 21


 1131              		.file 11 "c:\\users\\hirtt\\documents\\eclipse_e-puck2_win32_29_jan_2020\\eclipse_e-puck2\\tools\\
 1132              		.file 12 "c:\\users\\hirtt\\documents\\eclipse_e-puck2_win32_29_jan_2020\\eclipse_e-puck2\\tools\\
 1133              		.file 13 "../../lib/e-puck2_main-processor/src/sensors/VL53L0X/Api/core/inc/../../platform/inc/vl5
 1134              		.file 14 "../../lib/e-puck2_main-processor/ChibiOS//os/rt/ports/ARMCMx/compilers/GCC/chtypes.h"
 1135              		.file 15 "../../lib/e-puck2_main-processor/ChibiOS//os/rt/include/chsystypes.h"
 1136              		.file 16 "../../lib/e-puck2_main-processor/ChibiOS//os/rt/include/chschd.h"
 1137              		.file 17 "../../lib/e-puck2_main-processor/ChibiOS//os/ext/CMSIS/include/core_cm4.h"
 1138              		.file 18 "../../lib/e-puck2_main-processor/ChibiOS//os/ext/CMSIS/ST/system_stm32f4xx.h"
 1139              		.file 19 "../../lib/e-puck2_main-processor/ChibiOS//os/ext/CMSIS/ST/stm32f407xx.h"
 1140              		.file 20 "../../lib/e-puck2_main-processor/ChibiOS//os/rt/ports/ARMCMx/chcore.h"
 1141              		.file 21 "../../lib/e-puck2_main-processor/ChibiOS//os/rt/ports/ARMCMx/chcore_v7m.h"
 1142              		.file 22 "../../lib/e-puck2_main-processor/ChibiOS//os/rt/include/chdebug.h"
 1143              		.file 23 "../../lib/e-puck2_main-processor/ChibiOS//os/rt/include/chtm.h"
 1144              		.file 24 "../../lib/e-puck2_main-processor/ChibiOS//os/rt/include/chstats.h"
 1145              		.file 25 "../../lib/e-puck2_main-processor/ChibiOS//os/rt/include/chsem.h"
 1146              		.file 26 "../../lib/e-puck2_main-processor/ChibiOS//os/rt/include/chmtx.h"
 1147              		.file 27 "../../lib/e-puck2_main-processor/ChibiOS//os/rt/include/chevents.h"
 1148              		.file 28 "../../lib/e-puck2_main-processor/ChibiOS//os/rt/include/chqueues.h"
 1149              		.file 29 "../../lib/e-puck2_main-processor/ChibiOS//os/hal/ports/STM32/STM32F4xx/stm32_dma.h"
 1150              		.file 30 "../../lib/e-puck2_main-processor/ChibiOS//os/hal/include/hal_ioblock.h"
 1151              		.file 31 "../../lib/e-puck2_main-processor/ChibiOS//os/hal/ports/STM32/LLD/GPIOv2/pal_lld.h"
 1152              		.file 32 "../../lib/e-puck2_main-processor/ChibiOS//os/hal/include/adc.h"
 1153              		.file 33 "../../lib/e-puck2_main-processor/ChibiOS//os/hal/ports/STM32/STM32F4xx/adc_lld.h"
 1154              		.file 34 "../../lib/e-puck2_main-processor/ChibiOS//os/hal/include/can.h"
 1155              		.file 35 "../../lib/e-puck2_main-processor/ChibiOS//os/hal/ports/STM32/LLD/can_lld.h"
 1156              		.file 36 "../../lib/e-puck2_main-processor/ChibiOS//os/hal/include/dac.h"
 1157              		.file 37 "../../lib/e-puck2_main-processor/ChibiOS//os/hal/ports/STM32/LLD/DACv1/dac_lld.h"
 1158              		.file 38 "../../lib/e-puck2_main-processor/ChibiOS//os/hal/include/ext.h"
 1159              		.file 39 "../../lib/e-puck2_main-processor/ChibiOS//os/hal/ports/STM32/LLD/ext_lld.h"
 1160              		.file 40 "../../lib/e-puck2_main-processor/ChibiOS//os/hal/include/gpt.h"
 1161              		.file 41 "../../lib/e-puck2_main-processor/ChibiOS//os/hal/ports/STM32/LLD/TIMv1/gpt_lld.h"
 1162              		.file 42 "../../lib/e-puck2_main-processor/ChibiOS//os/hal/ports/STM32/LLD/TIMv1/stm32_tim.h"
 1163              		.file 43 "../../lib/e-puck2_main-processor/ChibiOS//os/hal/include/i2c.h"
 1164              		.file 44 "../../lib/e-puck2_main-processor/ChibiOS//os/hal/ports/STM32/LLD/I2Cv1/i2c_lld.h"
 1165              		.file 45 "../../lib/e-puck2_main-processor/ChibiOS//os/hal/include/i2s.h"
 1166              		.file 46 "../../lib/e-puck2_main-processor/ChibiOS//os/hal/ports/STM32/LLD/SPIv1/i2s_lld.h"
 1167              		.file 47 "../../lib/e-puck2_main-processor/ChibiOS//os/hal/include/pwm.h"
 1168              		.file 48 "../../lib/e-puck2_main-processor/ChibiOS//os/hal/ports/STM32/LLD/TIMv1/pwm_lld.h"
 1169              		.file 49 "../../lib/e-puck2_main-processor/ChibiOS//os/hal/include/serial.h"
 1170              		.file 50 "../../lib/e-puck2_main-processor/ChibiOS//os/hal/ports/STM32/LLD/USARTv1/serial_lld.h"
 1171              		.file 51 "../../lib/e-puck2_main-processor/ChibiOS//os/hal/include/sdc.h"
 1172              		.file 52 "../../lib/e-puck2_main-processor/ChibiOS//os/hal/ports/STM32/LLD/sdc_lld.h"
 1173              		.file 53 "../../lib/e-puck2_main-processor/ChibiOS//os/hal/include/spi.h"
 1174              		.file 54 "../../lib/e-puck2_main-processor/ChibiOS//os/hal/ports/STM32/LLD/SPIv1/spi_lld.h"
 1175              		.file 55 "../../lib/e-puck2_main-processor/ChibiOS//os/hal/include/usb.h"
 1176              		.file 56 "../../lib/e-puck2_main-processor/ChibiOS//os/hal/ports/STM32/LLD/OTGv1/usb_lld.h"
 1177              		.file 57 "../../lib/e-puck2_main-processor/ChibiOS//os/hal/ports/STM32/LLD/OTGv1/stm32_otg.h"
 1178              		.file 58 "../../lib/e-puck2_main-processor/ChibiOS//os/hal/include/serial_usb.h"
 1179              		.file 59 "../../lib/e-puck2_main-processor/ChibiOS//os/various/shell.h"
 1180              		.file 60 "../../lib/e-puck2_main-processor/src/usbcfg.h"
 1181              		.file 61 "c:\\users\\hirtt\\documents\\eclipse_e-puck2_win32_29_jan_2020\\eclipse_e-puck2\\tools\\
 1182              		.file 62 "../../lib/e-puck2_main-processor/src/i2c_bus.h"
 1183              		.file 63 "../../lib/e-puck2_main-processor/src/sensors/VL53L0X/Api/core/inc/vl53l0x_api.h"