ARM GAS  C:\Users\hirtt\AppData\Local\Temp\ccrx0jAi.s 			page 1


   1              		.cpu cortex-m4
   2              		.eabi_attribute 27, 1
   3              		.eabi_attribute 28, 1
   4              		.eabi_attribute 20, 1
   5              		.eabi_attribute 21, 1
   6              		.eabi_attribute 23, 3
   7              		.eabi_attribute 24, 1
   8              		.eabi_attribute 25, 1
   9              		.eabi_attribute 26, 1
  10              		.eabi_attribute 30, 2
  11              		.eabi_attribute 34, 1
  12              		.eabi_attribute 18, 4
  13              		.file	"main.c"
  14              		.text
  15              	.Ltext0:
  16              		.cfi_sections	.debug_frame
  17              		.section	.text.ThdPotentiometer,"ax",%progbits
  18              		.align	1
  19              		.p2align 4,,15
  20              		.syntax unified
  21              		.thumb
  22              		.thumb_func
  23              		.fpu fpv4-sp-d16
  24              		.type	ThdPotentiometer, %function
  25              	ThdPotentiometer:
  26              	.LFB293:
  27              		.file 1 "main.c"
  28              		.loc 1 30 0
  29              		.cfi_startproc
  30              		@ Volatile: function does not return.
  31              		@ args = 0, pretend = 0, frame = 8
  32              		@ frame_needed = 0, uses_anonymous_args = 0
  33              	.LVL0:
  34 0000 80B5     		push	{r7, lr}
  35              		.cfi_def_cfa_offset 8
  36              		.cfi_offset 7, -8
  37              		.cfi_offset 14, -4
  38              	.LBB6:
  39              	.LBB7:
  40              		.file 2 "../../lib/e-puck2_main-processor/ChibiOS//os/rt/include/chregistry.h"
  41              		.loc 2 135 0
  42 0002 1D4A     		ldr	r2, .L23
  43              	.LBE7:
  44              	.LBE6:
  45              		.loc 1 30 0
  46 0004 1D4B     		ldr	r3, .L23+4
  47              	.LBB10:
  48              	.LBB8:
  49              		.loc 2 135 0
  50 0006 9269     		ldr	r2, [r2, #24]
  51 0008 1D49     		ldr	r1, .L23+8
  52              	.LBE8:
  53              	.LBE10:
  54              		.loc 1 30 0
  55 000a 1B68     		ldr	r3, [r3]
  56              	.LBB11:
  57              	.LBB9:
ARM GAS  C:\Users\hirtt\AppData\Local\Temp\ccrx0jAi.s 			page 2


  58              		.loc 2 135 0
  59 000c 9161     		str	r1, [r2, #24]
  60              	.LBE9:
  61              	.LBE11:
  62              		.loc 1 30 0
  63 000e 82B0     		sub	sp, sp, #8
  64              		.cfi_def_cfa_offset 16
  65              		.loc 1 39 0
  66 0010 1C4C     		ldr	r4, .L23+12
  67              		.loc 1 30 0
  68 0012 0193     		str	r3, [sp, #4]
  69              		.loc 1 38 0
  70 0014 FFF7FEFF 		bl	get_selector
  71              	.LVL1:
  72 0018 2070     		strb	r0, [r4]
  73              		.loc 1 42 0
  74 001a FFF7FEFF 		bl	get_selector
  75              	.LVL2:
  76              		.loc 1 43 0
  77 001e 2378     		ldrb	r3, [r4]	@ zero_extendqisi2
  78 0020 194D     		ldr	r5, .L23+16
  79              		.loc 1 49 0
  80 0022 0327     		movs	r7, #3
  81              		.loc 1 47 0
  82 0024 0126     		movs	r6, #1
  83              		.loc 1 42 0
  84 0026 C2B2     		uxtb	r2, r0
  85              		.loc 1 43 0
  86 0028 83B9     		cbnz	r3, .L21
  87              	.L2:
  88              		.loc 1 52 0 discriminator 1
  89 002a 22B1     		cbz	r2, .L6
  90              		.loc 1 52 0 is_stmt 0 discriminator 2
  91 002c 022A     		cmp	r2, #2
  92 002e 1AD9     		bls	.L7
  93              		.loc 1 54 0 is_stmt 1 discriminator 2
  94 0030 0D2A     		cmp	r2, #13
  95 0032 00D9     		bls	.L6
  96              	.L8:
  97              		.loc 1 49 0
  98 0034 2F70     		strb	r7, [r5]
  99              	.L6:
 100              		.loc 1 64 0
 101 0036 4FF47A70 		mov	r0, #1000
 102              		.loc 1 63 0
 103 003a 2270     		strb	r2, [r4]
 104              		.loc 1 64 0
 105 003c FFF7FEFF 		bl	chThdSleep
 106              	.LVL3:
 107              		.loc 1 42 0
 108 0040 FFF7FEFF 		bl	get_selector
 109              	.LVL4:
 110              		.loc 1 43 0
 111 0044 2378     		ldrb	r3, [r4]	@ zero_extendqisi2
 112              		.loc 1 42 0
 113 0046 C2B2     		uxtb	r2, r0
 114              		.loc 1 43 0
ARM GAS  C:\Users\hirtt\AppData\Local\Temp\ccrx0jAi.s 			page 3


 115 0048 002B     		cmp	r3, #0
 116 004a EED0     		beq	.L2
 117              	.L21:
 118              		.loc 1 43 0 is_stmt 0 discriminator 2
 119 004c 0F2B     		cmp	r3, #15
 120 004e 0CD0     		beq	.L22
 121              		.loc 1 46 0 is_stmt 1
 122 0050 9A42     		cmp	r2, r3
 123 0052 02D9     		bls	.L5
 124              		.loc 1 46 0 is_stmt 0 discriminator 1
 125 0054 991C     		adds	r1, r3, #2
 126 0056 9142     		cmp	r1, r2
 127 0058 05DA     		bge	.L7
 128              	.L5:
 129              		.loc 1 48 0 is_stmt 1
 130 005a 9A42     		cmp	r2, r3
 131 005c EBD2     		bcs	.L6
 132              		.loc 1 48 0 is_stmt 0 discriminator 1
 133 005e 023B     		subs	r3, r3, #2
 134 0060 9342     		cmp	r3, r2
 135 0062 E8DC     		bgt	.L6
 136 0064 E6E7     		b	.L8
 137              	.L7:
 138              		.loc 1 47 0 is_stmt 1
 139 0066 2E70     		strb	r6, [r5]
 140 0068 E5E7     		b	.L6
 141              	.L22:
 142              		.loc 1 56 0 discriminator 1
 143 006a 0F2A     		cmp	r2, #15
 144 006c E3D0     		beq	.L6
 145              		.loc 1 56 0 is_stmt 0 discriminator 2
 146 006e 012A     		cmp	r2, #1
 147 0070 F9D9     		bls	.L7
 148              		.loc 1 58 0 is_stmt 1 discriminator 2
 149 0072 0C2A     		cmp	r2, #12
 150 0074 DED8     		bhi	.L8
 151 0076 DEE7     		b	.L6
 152              	.L24:
 153              		.align	2
 154              	.L23:
 155 0078 00000000 		.word	ch
 156 007c 00000000 		.word	__stack_chk_guard
 157 0080 00000000 		.word	.LANCHOR0
 158 0084 00000000 		.word	.LANCHOR1
 159 0088 00000000 		.word	.LANCHOR2
 160              		.cfi_endproc
 161              	.LFE293:
 162              		.size	ThdPotentiometer, .-ThdPotentiometer
 163              		.section	.text.startup.main,"ax",%progbits
 164              		.align	1
 165              		.p2align 4,,15
 166              		.global	main
 167              		.syntax unified
 168              		.thumb
 169              		.thumb_func
 170              		.fpu fpv4-sp-d16
 171              		.type	main, %function
ARM GAS  C:\Users\hirtt\AppData\Local\Temp\ccrx0jAi.s 			page 4


 172              	main:
 173              	.LFB296:
 174              		.loc 1 87 0
 175              		.cfi_startproc
 176              		@ args = 0, pretend = 0, frame = 8
 177              		@ frame_needed = 0, uses_anonymous_args = 0
 178 0000 70B5     		push	{r4, r5, r6, lr}
 179              		.cfi_def_cfa_offset 16
 180              		.cfi_offset 4, -16
 181              		.cfi_offset 5, -12
 182              		.cfi_offset 6, -8
 183              		.cfi_offset 14, -4
 184 0002 334B     		ldr	r3, .L35
 185 0004 334D     		ldr	r5, .L35+4
 186 0006 1B68     		ldr	r3, [r3]
 187 0008 84B0     		sub	sp, sp, #16
 188              		.cfi_def_cfa_offset 32
 189              		.loc 1 109 0
 190 000a 0026     		movs	r6, #0
 191              		.loc 1 87 0
 192 000c 0393     		str	r3, [sp, #12]
 193              		.loc 1 88 0
 194 000e FFF7FEFF 		bl	halInit
 195              	.LVL5:
 196              		.loc 1 89 0
 197 0012 FFF7FEFF 		bl	chSysInit
 198              	.LVL6:
 199              		.loc 1 90 0
 200 0016 FFF7FEFF 		bl	mpu_init
 201              	.LVL7:
 202              	.LBB16:
 203              	.LBB17:
 204              		.loc 1 71 0
 205 001a 2F49     		ldr	r1, .L35+8
 206 001c 2F48     		ldr	r0, .L35+12
 207 001e FFF7FEFF 		bl	sdStart
 208              	.LVL8:
 209              	.LBE17:
 210              	.LBE16:
 211              		.loc 1 95 0
 212 0022 FFF7FEFF 		bl	usb_start
 213              	.LVL9:
 214              		.loc 1 97 0
 215 0026 FFF7FEFF 		bl	dcmi_start
 216              	.LVL10:
 217              		.loc 1 98 0
 218 002a FFF7FEFF 		bl	po8030_start
 219              	.LVL11:
 220              		.loc 1 99 0
 221 002e FFF7FEFF 		bl	process_image_start
 222              	.LVL12:
 223              		.loc 1 100 0
 224 0032 FFF7FEFF 		bl	body_led_thd_start
 225              	.LVL13:
 226              	.LBB18:
 227              	.LBB19:
 228              		.loc 1 82 0
ARM GAS  C:\Users\hirtt\AppData\Local\Temp\ccrx0jAi.s 			page 5


 229 0036 2A49     		ldr	r1, .L35+16
 230 0038 2A48     		ldr	r0, .L35+20
 231 003a FFF7FEFF 		bl	gptStart
 232              	.LVL14:
 233              		.loc 1 84 0
 234 003e 4FF6FF71 		movw	r1, #65535
 235 0042 2848     		ldr	r0, .L35+20
 236 0044 FFF7FEFF 		bl	gptStartContinuous
 237              	.LVL15:
 238              	.LBE19:
 239              	.LBE18:
 240              		.loc 1 105 0
 241 0048 FFF7FEFF 		bl	motors_init
 242              	.LVL16:
 243              		.loc 1 106 0
 244 004c FFF7FEFF 		bl	VL53L0X_start
 245              	.LVL17:
 246              		.loc 1 109 0
 247 0050 0096     		str	r6, [sp]
 248 0052 254B     		ldr	r3, .L35+24
 249 0054 2548     		ldr	r0, .L35+28
 250 0056 4022     		movs	r2, #64
 251 0058 4FF4FC71 		mov	r1, #504
 252 005c FFF7FEFF 		bl	chThdCreateStatic
 253              	.LVL18:
 254              		.loc 1 120 0
 255 0060 2348     		ldr	r0, .L35+32
 256 0062 FFF7FEFF 		bl	mic_start
 257              	.LVL19:
 258 0066 0BE0     		b	.L31
 259              	.LVL20:
 260              	.L34:
 261              		.loc 1 125 0
 262 0068 1AD3     		bcc	.L28
 263 006a 032C     		cmp	r4, #3
 264 006c 04D1     		bne	.L26
 265              		.loc 1 161 0
 266 006e 0021     		movs	r1, #0
 267 0070 0846     		mov	r0, r1
 268 0072 FFF7FEFF 		bl	set_led
 269              	.LVL21:
 270              		.loc 1 162 0
 271 0076 2E70     		strb	r6, [r5]
 272              	.L26:
 273              		.loc 1 169 0
 274 0078 4FF47A70 		mov	r0, #1000
 275 007c FFF7FEFF 		bl	chThdSleep
 276              	.LVL22:
 277              	.L31:
 278              		.loc 1 125 0
 279 0080 2C78     		ldrb	r4, [r5]	@ zero_extendqisi2
 280 0082 012C     		cmp	r4, #1
 281 0084 F0D1     		bne	.L34
 282              		.loc 1 153 0
 283 0086 FFF7FEFF 		bl	clear_leds
 284              	.LVL23:
 285              		.loc 1 154 0
ARM GAS  C:\Users\hirtt\AppData\Local\Temp\ccrx0jAi.s 			page 6


 286 008a 2146     		mov	r1, r4
 287 008c 0020     		movs	r0, #0
 288 008e FFF7FEFF 		bl	set_led
 289              	.LVL24:
 290              		.loc 1 155 0
 291 0092 0020     		movs	r0, #0
 292 0094 FFF7FEFF 		bl	set_body_led
 293              	.LVL25:
 294              		.loc 1 156 0
 295 0098 0020     		movs	r0, #0
 296 009a FFF7FEFF 		bl	set_front_led
 297              	.LVL26:
 298              		.loc 1 157 0
 299 009e EBE7     		b	.L26
 300              	.L28:
 301              		.loc 1 134 0
 302 00a0 FFF7FEFF 		bl	VL53L0X_get_dist_mm
 303              	.LVL27:
 304              		.loc 1 135 0
 305 00a4 8338     		subs	r0, r0, #131
 306              	.LVL28:
 307 00a6 83B2     		uxth	r3, r0
 308 00a8 172B     		cmp	r3, #23
 309              		.loc 1 136 0
 310 00aa 4FF00000 		mov	r0, #0
 311              		.loc 1 135 0
 312 00ae 06D8     		bhi	.L30
 313              		.loc 1 136 0
 314 00b0 FFF7FEFF 		bl	capture_image
 315              	.LVL29:
 316              		.loc 1 137 0
 317 00b4 0121     		movs	r1, #1
 318 00b6 0220     		movs	r0, #2
 319 00b8 FFF7FEFF 		bl	set_led
 320              	.LVL30:
 321 00bc DCE7     		b	.L26
 322              	.L30:
 323              		.loc 1 139 0
 324 00be 0120     		movs	r0, #1
 325 00c0 FFF7FEFF 		bl	capture_image
 326              	.LVL31:
 327              		.loc 1 140 0
 328 00c4 0021     		movs	r1, #0
 329 00c6 0220     		movs	r0, #2
 330 00c8 FFF7FEFF 		bl	set_led
 331              	.LVL32:
 332 00cc D4E7     		b	.L26
 333              	.L36:
 334 00ce 00BF     		.align	2
 335              	.L35:
 336 00d0 00000000 		.word	__stack_chk_guard
 337 00d4 00000000 		.word	.LANCHOR2
 338 00d8 00000000 		.word	.LANCHOR3
 339 00dc 00000000 		.word	SD3
 340 00e0 00000000 		.word	.LANCHOR4
 341 00e4 00000000 		.word	GPTD12
 342 00e8 00000000 		.word	ThdPotentiometer
ARM GAS  C:\Users\hirtt\AppData\Local\Temp\ccrx0jAi.s 			page 7


 343 00ec 00000000 		.word	.LANCHOR5
 344 00f0 00000000 		.word	processAudioData
 345              		.cfi_endproc
 346              	.LFE296:
 347              		.size	main, .-main
 348              		.section	.text.__stack_chk_fail,"ax",%progbits
 349              		.align	1
 350              		.p2align 4,,15
 351              		.global	__stack_chk_fail
 352              		.syntax unified
 353              		.thumb
 354              		.thumb_func
 355              		.fpu fpv4-sp-d16
 356              		.type	__stack_chk_fail, %function
 357              	__stack_chk_fail:
 358              	.LFB297:
 359              		.loc 1 176 0
 360              		.cfi_startproc
 361              		@ args = 0, pretend = 0, frame = 8
 362              		@ frame_needed = 0, uses_anonymous_args = 0
 363 0000 00B5     		push	{lr}
 364              		.cfi_def_cfa_offset 4
 365              		.cfi_offset 14, -4
 366 0002 084B     		ldr	r3, .L42
 367 0004 83B0     		sub	sp, sp, #12
 368              		.cfi_def_cfa_offset 16
 369              		.loc 1 176 0
 370 0006 1A68     		ldr	r2, [r3]
 371 0008 0192     		str	r2, [sp, #4]
 372              		.loc 1 177 0
 373 000a 019A     		ldr	r2, [sp, #4]
 374 000c 1B68     		ldr	r3, [r3]
 375 000e 9A42     		cmp	r2, r3
 376 0010 05D1     		bne	.L41
 377 0012 0548     		ldr	r0, .L42+4
 378              		.loc 1 178 0
 379 0014 03B0     		add	sp, sp, #12
 380              		.cfi_remember_state
 381              		.cfi_def_cfa_offset 4
 382              		@ sp needed
 383 0016 5DF804EB 		ldr	lr, [sp], #4
 384              		.cfi_restore 14
 385              		.cfi_def_cfa_offset 0
 386              		.loc 1 177 0
 387 001a FFF7FEBF 		b	chSysHalt
 388              	.LVL33:
 389              	.L41:
 390              		.cfi_restore_state
 391 001e FFF7FEFF 		bl	__stack_chk_fail
 392              	.LVL34:
 393              	.L43:
 394 0022 00BF     		.align	2
 395              	.L42:
 396 0024 00000000 		.word	__stack_chk_guard
 397 0028 00000000 		.word	.LC0
 398              		.cfi_endproc
 399              	.LFE297:
ARM GAS  C:\Users\hirtt\AppData\Local\Temp\ccrx0jAi.s 			page 8


 400              		.size	__stack_chk_fail, .-__stack_chk_fail
 401              		.global	__stack_chk_guard
 402              		.global	pucky_state
 403              		.section	.bss.old_selector.15566,"aw",%nobits
 404              		.set	.LANCHOR1,. + 0
 405              		.type	old_selector.15566, %object
 406              		.size	old_selector.15566, 1
 407              	old_selector.15566:
 408 0000 00       		.space	1
 409              		.section	.bss.pucky_state,"aw",%nobits
 410              		.set	.LANCHOR2,. + 0
 411              		.type	pucky_state, %object
 412              		.size	pucky_state, 1
 413              	pucky_state:
 414 0000 00       		.space	1
 415              		.section	.bss.waThdPotentiometer,"aw",%nobits
 416              		.align	3
 417              		.set	.LANCHOR5,. + 0
 418              		.type	waThdPotentiometer, %object
 419              		.size	waThdPotentiometer, 504
 420              	waThdPotentiometer:
 421 0000 00000000 		.space	504
 421      00000000 
 421      00000000 
 421      00000000 
 421      00000000 
 422              		.section	.data.__stack_chk_guard,"aw",%progbits
 423              		.align	2
 424              		.type	__stack_chk_guard, %object
 425              		.size	__stack_chk_guard, 4
 426              	__stack_chk_guard:
 427 0000 96E3DEE2 		.word	-488709226
 428              		.section	.data.ser_cfg.15572,"aw",%progbits
 429              		.align	2
 430              		.set	.LANCHOR3,. + 0
 431              		.type	ser_cfg.15572, %object
 432              		.size	ser_cfg.15572, 12
 433              	ser_cfg.15572:
 434 0000 00C20100 		.word	115200
 435 0004 0000     		.short	0
 436 0006 0000     		.short	0
 437 0008 0000     		.short	0
 438 000a 0000     		.space	2
 439              		.section	.rodata.__FUNCTION__.15564,"a",%progbits
 440              		.align	2
 441              		.set	.LANCHOR0,. + 0
 442              		.type	__FUNCTION__.15564, %object
 443              		.size	__FUNCTION__.15564, 17
 444              	__FUNCTION__.15564:
 445 0000 54686450 		.ascii	"ThdPotentiometer\000"
 445      6F74656E 
 445      74696F6D 
 445      65746572 
 445      00
 446              		.section	.rodata.__stack_chk_fail.str1.4,"aMS",%progbits,1
 447              		.align	2
 448              	.LC0:
ARM GAS  C:\Users\hirtt\AppData\Local\Temp\ccrx0jAi.s 			page 9


 449 0000 53746163 		.ascii	"Stack smashing detected\000"
 449      6B20736D 
 449      61736869 
 449      6E672064 
 449      65746563 
 450              		.section	.rodata.gpt12cfg.15576,"a",%progbits
 451              		.align	2
 452              		.set	.LANCHOR4,. + 0
 453              		.type	gpt12cfg.15576, %object
 454              		.size	gpt12cfg.15576, 16
 455              	gpt12cfg.15576:
 456 0000 40420F00 		.word	1000000
 457 0004 00000000 		.word	0
 458 0008 00000000 		.word	0
 459 000c 00000000 		.word	0
 460              		.text
 461              	.Letext0:
 462              		.file 3 "c:\\users\\hirtt\\documents\\eclipse_e-puck2_win32_29_jan_2020\\eclipse_e-puck2\\tools\\g
 463              		.file 4 "c:\\users\\hirtt\\documents\\eclipse_e-puck2_win32_29_jan_2020\\eclipse_e-puck2\\tools\\g
 464              		.file 5 "c:\\users\\hirtt\\documents\\eclipse_e-puck2_win32_29_jan_2020\\eclipse_e-puck2\\tools\\g
 465              		.file 6 "c:\\users\\hirtt\\documents\\eclipse_e-puck2_win32_29_jan_2020\\eclipse_e-puck2\\tools\\g
 466              		.file 7 "c:\\users\\hirtt\\documents\\eclipse_e-puck2_win32_29_jan_2020\\eclipse_e-puck2\\tools\\g
 467              		.file 8 "c:\\users\\hirtt\\documents\\eclipse_e-puck2_win32_29_jan_2020\\eclipse_e-puck2\\tools\\g
 468              		.file 9 "c:\\users\\hirtt\\documents\\eclipse_e-puck2_win32_29_jan_2020\\eclipse_e-puck2\\tools\\g
 469              		.file 10 "../../lib/e-puck2_main-processor/ChibiOS//os/rt/ports/ARMCMx/compilers/GCC/chtypes.h"
 470              		.file 11 "../../lib/e-puck2_main-processor/ChibiOS//os/rt/include/chsystypes.h"
 471              		.file 12 "../../lib/e-puck2_main-processor/ChibiOS//os/rt/include/chschd.h"
 472              		.file 13 "../../lib/e-puck2_main-processor/ChibiOS//os/ext/CMSIS/include/core_cm4.h"
 473              		.file 14 "../../lib/e-puck2_main-processor/ChibiOS//os/ext/CMSIS/ST/system_stm32f4xx.h"
 474              		.file 15 "../../lib/e-puck2_main-processor/ChibiOS//os/ext/CMSIS/ST/stm32f407xx.h"
 475              		.file 16 "../../lib/e-puck2_main-processor/ChibiOS//os/rt/ports/ARMCMx/chcore.h"
 476              		.file 17 "../../lib/e-puck2_main-processor/ChibiOS//os/rt/ports/ARMCMx/chcore_v7m.h"
 477              		.file 18 "../../lib/e-puck2_main-processor/ChibiOS//os/rt/include/chdebug.h"
 478              		.file 19 "../../lib/e-puck2_main-processor/ChibiOS//os/rt/include/chtm.h"
 479              		.file 20 "../../lib/e-puck2_main-processor/ChibiOS//os/rt/include/chstats.h"
 480              		.file 21 "../../lib/e-puck2_main-processor/ChibiOS//os/rt/include/chsem.h"
 481              		.file 22 "../../lib/e-puck2_main-processor/ChibiOS//os/rt/include/chmtx.h"
 482              		.file 23 "../../lib/e-puck2_main-processor/ChibiOS//os/rt/include/chevents.h"
 483              		.file 24 "../../lib/e-puck2_main-processor/ChibiOS//os/rt/include/chqueues.h"
 484              		.file 25 "../../lib/e-puck2_main-processor/ChibiOS//os/hal/ports/STM32/STM32F4xx/stm32_dma.h"
 485              		.file 26 "../../lib/e-puck2_main-processor/ChibiOS//os/hal/include/hal_ioblock.h"
 486              		.file 27 "../../lib/e-puck2_main-processor/ChibiOS//os/hal/ports/STM32/LLD/GPIOv2/pal_lld.h"
 487              		.file 28 "../../lib/e-puck2_main-processor/ChibiOS//os/hal/include/adc.h"
 488              		.file 29 "../../lib/e-puck2_main-processor/ChibiOS//os/hal/ports/STM32/STM32F4xx/adc_lld.h"
 489              		.file 30 "../../lib/e-puck2_main-processor/ChibiOS//os/hal/include/can.h"
 490              		.file 31 "../../lib/e-puck2_main-processor/ChibiOS//os/hal/ports/STM32/LLD/can_lld.h"
 491              		.file 32 "../../lib/e-puck2_main-processor/ChibiOS//os/hal/include/dac.h"
 492              		.file 33 "../../lib/e-puck2_main-processor/ChibiOS//os/hal/ports/STM32/LLD/DACv1/dac_lld.h"
 493              		.file 34 "../../lib/e-puck2_main-processor/ChibiOS//os/hal/include/ext.h"
 494              		.file 35 "../../lib/e-puck2_main-processor/ChibiOS//os/hal/ports/STM32/LLD/ext_lld.h"
 495              		.file 36 "../../lib/e-puck2_main-processor/ChibiOS//os/hal/include/gpt.h"
 496              		.file 37 "../../lib/e-puck2_main-processor/ChibiOS//os/hal/ports/STM32/LLD/TIMv1/gpt_lld.h"
 497              		.file 38 "../../lib/e-puck2_main-processor/ChibiOS//os/hal/ports/STM32/LLD/TIMv1/stm32_tim.h"
 498              		.file 39 "../../lib/e-puck2_main-processor/ChibiOS//os/hal/include/i2c.h"
 499              		.file 40 "../../lib/e-puck2_main-processor/ChibiOS//os/hal/ports/STM32/LLD/I2Cv1/i2c_lld.h"
 500              		.file 41 "../../lib/e-puck2_main-processor/ChibiOS//os/hal/include/i2s.h"
 501              		.file 42 "../../lib/e-puck2_main-processor/ChibiOS//os/hal/ports/STM32/LLD/SPIv1/i2s_lld.h"
ARM GAS  C:\Users\hirtt\AppData\Local\Temp\ccrx0jAi.s 			page 10


 502              		.file 43 "../../lib/e-puck2_main-processor/ChibiOS//os/hal/include/pwm.h"
 503              		.file 44 "../../lib/e-puck2_main-processor/ChibiOS//os/hal/ports/STM32/LLD/TIMv1/pwm_lld.h"
 504              		.file 45 "../../lib/e-puck2_main-processor/ChibiOS//os/hal/include/serial.h"
 505              		.file 46 "../../lib/e-puck2_main-processor/ChibiOS//os/hal/ports/STM32/LLD/USARTv1/serial_lld.h"
 506              		.file 47 "../../lib/e-puck2_main-processor/ChibiOS//os/hal/include/sdc.h"
 507              		.file 48 "../../lib/e-puck2_main-processor/ChibiOS//os/hal/ports/STM32/LLD/sdc_lld.h"
 508              		.file 49 "../../lib/e-puck2_main-processor/ChibiOS//os/hal/include/spi.h"
 509              		.file 50 "../../lib/e-puck2_main-processor/ChibiOS//os/hal/ports/STM32/LLD/SPIv1/spi_lld.h"
 510              		.file 51 "../../lib/e-puck2_main-processor/ChibiOS//os/hal/include/usb.h"
 511              		.file 52 "../../lib/e-puck2_main-processor/ChibiOS//os/hal/ports/STM32/LLD/OTGv1/usb_lld.h"
 512              		.file 53 "../../lib/e-puck2_main-processor/ChibiOS//os/hal/ports/STM32/LLD/OTGv1/stm32_otg.h"
 513              		.file 54 "../../lib/e-puck2_main-processor/ChibiOS//os/hal/include/serial_usb.h"
 514              		.file 55 "../../lib/e-puck2_main-processor/src/leds.h"
 515              		.file 56 "../../lib/e-puck2_main-processor/src/usbcfg.h"
 516              		.file 57 "../../lib/e-puck2_main-processor/ChibiOS_ext/os/hal/include/../ports/STM32/STM32F4xx/dcm
 517              		.file 58 "c:\\users\\hirtt\\documents\\eclipse_e-puck2_win32_29_jan_2020\\eclipse_e-puck2\\tools\\
 518              		.file 59 "../../lib/e-puck2_main-processor/src/msgbus/messagebus.h"
 519              		.file 60 "../../lib/e-puck2_main-processor/src/parameter/parameter.h"
 520              		.file 61 "./main.h"
 521              		.file 62 "c:\\users\\hirtt\\documents\\eclipse_e-puck2_win32_29_jan_2020\\eclipse_e-puck2\\tools\\
 522              		.file 63 "../../lib/e-puck2_main-processor/ChibiOS//os/rt/include/chsys.h"
 523              		.file 64 "../../lib/e-puck2_main-processor/ChibiOS//os/hal/include/hal.h"
 524              		.file 65 "../../lib/e-puck2_main-processor/src/memory_protection.h"
 525              		.file 66 "../../lib/e-puck2_main-processor/src/camera/dcmi_camera.h"
 526              		.file 67 "../../lib/e-puck2_main-processor/src/camera/po8030.h"
 527              		.file 68 "./process_image.h"
 528              		.file 69 "./body_led_thd.h"
 529              		.file 70 "../../lib/e-puck2_main-processor/src/motors.h"
 530              		.file 71 "../../lib/e-puck2_main-processor/src/sensors/VL53L0X/VL53L0X.h"
 531              		.file 72 "../../lib/e-puck2_main-processor/ChibiOS//os/rt/include/chthreads.h"
 532              		.file 73 "../../lib/e-puck2_main-processor/src/audio/microphone.h"
 533              		.file 74 "../../lib/e-puck2_main-processor/src/selector.h"