ARM GAS  C:\Users\hirtt\AppData\Local\Temp\ccQG94Ra.s 			page 1


   1              		.cpu cortex-m4
   2              		.eabi_attribute 27, 1
   3              		.eabi_attribute 28, 1
   4              		.eabi_attribute 20, 1
   5              		.eabi_attribute 21, 1
   6              		.eabi_attribute 23, 3
   7              		.eabi_attribute 24, 1
   8              		.eabi_attribute 25, 1
   9              		.eabi_attribute 26, 1
  10              		.eabi_attribute 30, 2
  11              		.eabi_attribute 34, 1
  12              		.eabi_attribute 18, 4
  13              		.file	"process_image.c"
  14              		.text
  15              	.Ltext0:
  16              		.cfi_sections	.debug_frame
  17              		.section	.text.chprintf.constprop.0,"ax",%progbits
  18              		.align	1
  19              		.p2align 4,,15
  20              		.syntax unified
  21              		.thumb
  22              		.thumb_func
  23              		.fpu fpv4-sp-d16
  24              		.type	chprintf.constprop.0, %function
  25              	chprintf.constprop.0:
  26              	.LFB266:
  27              		.file 1 "../../lib/e-puck2_main-processor/ChibiOS//os/hal/lib/streams/chprintf.h"
  28              		.loc 1 69 0
  29              		.cfi_startproc
  30              		@ args = 4, pretend = 12, frame = 8
  31              		@ frame_needed = 0, uses_anonymous_args = 1
  32              	.LVL0:
  33 0000 0EB4     		push	{r1, r2, r3}
  34              		.cfi_def_cfa_offset 12
  35              		.cfi_offset 1, -12
  36              		.cfi_offset 2, -8
  37              		.cfi_offset 3, -4
  38 0002 10B5     		push	{r4, lr}
  39              		.cfi_def_cfa_offset 20
  40              		.cfi_offset 4, -20
  41              		.cfi_offset 14, -16
  42 0004 83B0     		sub	sp, sp, #12
  43              		.cfi_def_cfa_offset 32
  44              		.loc 1 69 0
  45 0006 05AA     		add	r2, sp, #20
  46 0008 094C     		ldr	r4, .L6
  47 000a 52F8041B 		ldr	r1, [r2], #4
  48 000e 2368     		ldr	r3, [r4]
  49              		.loc 1 74 0
  50 0010 0848     		ldr	r0, .L6+4
  51              	.LVL1:
  52              		.loc 1 73 0
  53 0012 0092     		str	r2, [sp]
  54              		.loc 1 69 0
  55 0014 0193     		str	r3, [sp, #4]
  56              	.LVL2:
  57              		.loc 1 74 0
ARM GAS  C:\Users\hirtt\AppData\Local\Temp\ccQG94Ra.s 			page 2


  58 0016 FFF7FEFF 		bl	chvprintf
  59              	.LVL3:
  60              		.loc 1 78 0
  61 001a 019A     		ldr	r2, [sp, #4]
  62 001c 2368     		ldr	r3, [r4]
  63 001e 9A42     		cmp	r2, r3
  64 0020 04D1     		bne	.L5
  65 0022 03B0     		add	sp, sp, #12
  66              		.cfi_remember_state
  67              		.cfi_def_cfa_offset 20
  68              		@ sp needed
  69 0024 BDE81040 		pop	{r4, lr}
  70              		.cfi_restore 14
  71              		.cfi_restore 4
  72              		.cfi_def_cfa_offset 12
  73 0028 03B0     		add	sp, sp, #12
  74              		.cfi_restore 3
  75              		.cfi_restore 2
  76              		.cfi_restore 1
  77              		.cfi_def_cfa_offset 0
  78 002a 7047     		bx	lr
  79              	.L5:
  80              		.cfi_restore_state
  81 002c FFF7FEFF 		bl	__stack_chk_fail
  82              	.LVL4:
  83              	.L7:
  84              		.align	2
  85              	.L6:
  86 0030 00000000 		.word	__stack_chk_guard
  87 0034 00000000 		.word	SD3
  88              		.cfi_endproc
  89              	.LFE266:
  90              		.size	chprintf.constprop.0, .-chprintf.constprop.0
  91              		.section	.text.CaptureImage,"ax",%progbits
  92              		.align	1
  93              		.p2align 4,,15
  94              		.syntax unified
  95              		.thumb
  96              		.thumb_func
  97              		.fpu fpv4-sp-d16
  98              		.type	CaptureImage, %function
  99              	CaptureImage:
 100              	.LFB260:
 101              		.file 2 "process_image.c"
 102              		.loc 2 151 0
 103              		.cfi_startproc
 104              		@ Volatile: function does not return.
 105              		@ args = 0, pretend = 0, frame = 8
 106              		@ frame_needed = 0, uses_anonymous_args = 0
 107              	.LVL5:
 108 0000 80B5     		push	{r7, lr}
 109              		.cfi_def_cfa_offset 8
 110              		.cfi_offset 7, -8
 111              		.cfi_offset 14, -4
 112              	.LBB54:
 113              	.LBB55:
 114              		.file 3 "../../lib/e-puck2_main-processor/ChibiOS//os/rt/include/chregistry.h"
ARM GAS  C:\Users\hirtt\AppData\Local\Temp\ccQG94Ra.s 			page 3


 115              		.loc 3 135 0
 116 0002 294C     		ldr	r4, .L18
 117              	.LBE55:
 118              	.LBE54:
 119              		.loc 2 151 0
 120 0004 2949     		ldr	r1, .L18+4
 121              	.LBB57:
 122              	.LBB56:
 123              		.loc 3 135 0
 124 0006 A369     		ldr	r3, [r4, #24]
 125 0008 294A     		ldr	r2, .L18+8
 126 000a 9A61     		str	r2, [r3, #24]
 127              	.LBE56:
 128              	.LBE57:
 129              		.loc 2 151 0
 130 000c 86B0     		sub	sp, sp, #24
 131              		.cfi_def_cfa_offset 32
 132              		.loc 2 157 0
 133 000e 2023     		movs	r3, #32
 134 0010 0222     		movs	r2, #2
 135              		.loc 2 151 0
 136 0012 0D68     		ldr	r5, [r1]
 137              		.loc 2 157 0
 138 0014 0092     		str	r2, [sp]
 139 0016 0021     		movs	r1, #0
 140 0018 0A22     		movs	r2, #10
 141 001a CDE90133 		strd	r3, r3, [sp, #4]
 142 001e 3020     		movs	r0, #48
 143              	.LVL6:
 144 0020 4FF42073 		mov	r3, #640
 145              		.loc 2 151 0
 146 0024 0595     		str	r5, [sp, #20]
 147              		.loc 2 157 0
 148 0026 FFF7FEFF 		bl	po8030_advanced_config
 149              	.LVL7:
 150              		.loc 2 158 0
 151 002a FFF7FEFF 		bl	dcmi_enable_double_buffering
 152              	.LVL8:
 153              		.loc 2 159 0
 154 002e 0020     		movs	r0, #0
 155 0030 FFF7FEFF 		bl	dcmi_set_capture_mode
 156              	.LVL9:
 157 0034 1F4E     		ldr	r6, .L18+12
 158 0036 204D     		ldr	r5, .L18+16
 159              	.LBB58:
 160              	.LBB59:
 161              	.LBB60:
 162              	.LBB61:
 163              		.file 4 "../../lib/e-puck2_main-processor/ChibiOS//os/rt/include/chsys.h"
 164              		.loc 4 367 0
 165 0038 204F     		ldr	r7, .L18+20
 166              	.LBE61:
 167              	.LBE60:
 168              	.LBE59:
 169              	.LBE58:
 170              		.loc 2 160 0
 171 003a FFF7FEFF 		bl	dcmi_prepare
ARM GAS  C:\Users\hirtt\AppData\Local\Temp\ccQG94Ra.s 			page 4


 172              	.LVL10:
 173              	.LBB81:
 174              	.LBB78:
 175              	.LBB66:
 176              	.LBB67:
 177              		.file 5 "../../lib/e-puck2_main-processor/ChibiOS//os/rt/include/chbsem.h"
 178              		.loc 5 271 0
 179 003e B046     		mov	r8, r6
 180              	.L9:
 181              	.LBE67:
 182              	.LBE66:
 183              	.LBE78:
 184              	.LBE81:
 185              		.loc 2 164 0
 186 0040 2B78     		ldrb	r3, [r5]	@ zero_extendqisi2
 187              		.loc 2 172 0
 188 0042 4FF47A70 		mov	r0, #1000
 189              		.loc 2 164 0
 190 0046 43BB     		cbnz	r3, .L10
 191              	.L17:
 192              		.loc 2 166 0
 193 0048 FFF7FEFF 		bl	dcmi_capture_start
 194              	.LVL11:
 195              		.loc 2 168 0
 196 004c FFF7FEFF 		bl	wait_image_ready
 197              	.LVL12:
 198              	.LBB82:
 199              	.LBB79:
 200              	.LBB70:
 201              	.LBB71:
 202              	.LBB72:
 203              	.LBB73:
 204              	.LBB74:
 205              		.file 6 "../../lib/e-puck2_main-processor/ChibiOS//os/ext/CMSIS/include/core_cmFunc.h"
 206              		.loc 6 546 0
 207 0050 2023     		movs	r3, #32
 208              		.syntax unified
 209              	@ 546 "../../lib/e-puck2_main-processor/ChibiOS//os/ext/CMSIS/include/core_cmFunc.h" 1
 210 0052 83F31188 		MSR basepri, r3
 211              	@ 0 "" 2
 212              	.LVL13:
 213              		.thumb
 214              		.syntax unified
 215              	.LBE74:
 216              	.LBE73:
 217              	.LBE72:
 218              		.loc 4 349 0
 219 0056 FFF7FEFF 		bl	_stats_start_measure_crit_thd
 220              	.LVL14:
 221              		.loc 4 350 0
 222 005a FFF7FEFF 		bl	_dbg_check_lock
 223              	.LVL15:
 224              	.LBE71:
 225              	.LBE70:
 226              	.LBB75:
 227              	.LBB68:
 228              		.loc 5 268 0
ARM GAS  C:\Users\hirtt\AppData\Local\Temp\ccQG94Ra.s 			page 5


 229 005e FFF7FEFF 		bl	chDbgCheckClassI
 230              	.LVL16:
 231              		.loc 5 270 0
 232 0062 B368     		ldr	r3, [r6, #8]
 233 0064 002B     		cmp	r3, #0
 234 0066 1BDD     		ble	.L16
 235              	.L11:
 236              	.LVL17:
 237              	.LBE68:
 238              	.LBE75:
 239              		.loc 5 286 0
 240 0068 FFF7FEFF 		bl	chSchRescheduleS
 241              	.LVL18:
 242              	.LBB76:
 243              	.LBB65:
 244              		.loc 4 360 0
 245 006c FFF7FEFF 		bl	_dbg_check_unlock
 246              	.LVL19:
 247              		.loc 4 361 0
 248 0070 FFF7FEFF 		bl	_stats_stop_measure_crit_thd
 249              	.LVL20:
 250              		.loc 4 367 0
 251 0074 2368     		ldr	r3, [r4]
 252 0076 A342     		cmp	r3, r4
 253 0078 07D0     		beq	.L12
 254 007a A269     		ldr	r2, [r4, #24]
 255 007c 9B68     		ldr	r3, [r3, #8]
 256 007e 9268     		ldr	r2, [r2, #8]
 257 0080 9A42     		cmp	r2, r3
 258 0082 02D2     		bcs	.L12
 259 0084 3846     		mov	r0, r7
 260 0086 FFF7FEFF 		bl	chSysHalt
 261              	.LVL21:
 262              	.L12:
 263              	.LBB62:
 264              	.LBB63:
 265              	.LBB64:
 266              		.loc 6 546 0
 267 008a 0023     		movs	r3, #0
 268              		.syntax unified
 269              	@ 546 "../../lib/e-puck2_main-processor/ChibiOS//os/ext/CMSIS/include/core_cmFunc.h" 1
 270 008c 83F31188 		MSR basepri, r3
 271              	@ 0 "" 2
 272              	.LVL22:
 273              		.thumb
 274              		.syntax unified
 275              	.LBE64:
 276              	.LBE63:
 277              	.LBE62:
 278              	.LBE65:
 279              	.LBE76:
 280              	.LBE79:
 281              	.LBE82:
 282              		.loc 2 164 0
 283 0090 2B78     		ldrb	r3, [r5]	@ zero_extendqisi2
 284              		.loc 2 172 0
 285 0092 4FF47A70 		mov	r0, #1000
ARM GAS  C:\Users\hirtt\AppData\Local\Temp\ccQG94Ra.s 			page 6


 286              		.loc 2 164 0
 287 0096 002B     		cmp	r3, #0
 288 0098 D6D0     		beq	.L17
 289              	.LVL23:
 290              	.L10:
 291              		.loc 2 172 0
 292 009a FFF7FEFF 		bl	chThdSleep
 293              	.LVL24:
 294 009e CFE7     		b	.L9
 295              	.LVL25:
 296              	.L16:
 297              	.LBB83:
 298              	.LBB80:
 299              	.LBB77:
 300              	.LBB69:
 301              		.loc 5 271 0
 302 00a0 4046     		mov	r0, r8
 303 00a2 FFF7FEFF 		bl	chSemSignalI
 304              	.LVL26:
 305 00a6 DFE7     		b	.L11
 306              	.L19:
 307              		.align	2
 308              	.L18:
 309 00a8 00000000 		.word	ch
 310 00ac 00000000 		.word	__stack_chk_guard
 311 00b0 00000000 		.word	.LANCHOR0
 312 00b4 00000000 		.word	.LANCHOR2
 313 00b8 00000000 		.word	.LANCHOR1
 314 00bc 00000000 		.word	.LANCHOR3
 315              	.LBE69:
 316              	.LBE77:
 317              	.LBE80:
 318              	.LBE83:
 319              		.cfi_endproc
 320              	.LFE260:
 321              		.size	CaptureImage, .-CaptureImage
 322              		.section	.text.extract_line_width,"ax",%progbits
 323              		.align	1
 324              		.p2align 4,,15
 325              		.global	extract_line_width
 326              		.syntax unified
 327              		.thumb
 328              		.thumb_func
 329              		.fpu fpv4-sp-d16
 330              		.type	extract_line_width, %function
 331              	extract_line_width:
 332              	.LFB258:
 333              		.loc 2 72 0
 334              		.cfi_startproc
 335              		@ args = 4, pretend = 0, frame = 16
 336              		@ frame_needed = 0, uses_anonymous_args = 0
 337              	.LVL27:
 338 0000 2DE9F04F 		push	{r4, r5, r6, r7, r8, r9, r10, fp, lr}
 339              		.cfi_def_cfa_offset 36
 340              		.cfi_offset 4, -36
 341              		.cfi_offset 5, -32
 342              		.cfi_offset 6, -28
ARM GAS  C:\Users\hirtt\AppData\Local\Temp\ccQG94Ra.s 			page 7


 343              		.cfi_offset 7, -24
 344              		.cfi_offset 8, -20
 345              		.cfi_offset 9, -16
 346              		.cfi_offset 10, -12
 347              		.cfi_offset 11, -8
 348              		.cfi_offset 14, -4
 349 0004 85B0     		sub	sp, sp, #20
 350              		.cfi_def_cfa_offset 56
 351              		.loc 2 72 0
 352 0006 6C46     		mov	r4, sp
 353 0008 84E80C00 		stm	r4, {r2, r3}
 354 000c 2C4B     		ldr	r3, .L43
 355 000e BDF80090 		ldrh	r9, [sp]
 356              	.LVL28:
 357 0012 1B68     		ldr	r3, [r3]
 358 0014 BDF802B0 		ldrh	fp, [sp, #2]
 359              	.LVL29:
 360 0018 9DF804A0 		ldrb	r10, [sp, #4]	@ zero_extendqisi2
 361              	.LVL30:
 362 001c 0E9F     		ldr	r7, [sp, #56]
 363 001e 0393     		str	r3, [sp, #12]
 364              		.loc 2 74 0
 365 0020 4C46     		mov	r4, r9
 366 0022 4B46     		mov	r3, r9
 367              		.loc 2 79 0
 368 0024 40F27A2E 		movw	lr, #634
 369 0028 40F27B28 		movw	r8, #635
 370              	.LVL31:
 371              	.L21:
 372 002c 7345     		cmp	r3, lr
 373 002e 0DD8     		bhi	.L39
 374 0030 CE18     		adds	r6, r1, r3
 375 0032 1A46     		mov	r2, r3
 376              	.LVL32:
 377              	.L26:
 378              		.loc 2 83 0
 379 0034 16F8013B 		ldrb	r3, [r6], #1	@ zero_extendqisi2
 380 0038 551C     		adds	r5, r2, #1
 381 003a BB42     		cmp	r3, r7
 382 003c ADB2     		uxth	r5, r5
 383 003e 02D9     		bls	.L22
 384              		.loc 2 83 0 is_stmt 0 discriminator 1
 385 0040 3379     		ldrb	r3, [r6, #4]	@ zero_extendqisi2
 386 0042 BB42     		cmp	r3, r7
 387 0044 12D3     		bcc	.L40
 388              	.L22:
 389              	.LVL33:
 390              		.loc 2 79 0 is_stmt 1 discriminator 1
 391 0046 4545     		cmp	r5, r8
 392 0048 2A46     		mov	r2, r5
 393 004a F3D1     		bne	.L26
 394              	.LVL34:
 395              	.L39:
 396              		.loc 2 128 0
 397 004c 0022     		movs	r2, #0
 398              	.LVL35:
 399              	.L24:
ARM GAS  C:\Users\hirtt\AppData\Local\Temp\ccQG94Ra.s 			page 8


 400              		.loc 2 138 0
 401 004e 1C4B     		ldr	r3, .L43
 402 0050 0399     		ldr	r1, [sp, #12]
 403 0052 1B68     		ldr	r3, [r3]
 404              		.loc 2 137 0
 405 0054 A0F80090 		strh	r9, [r0]	@ movhi
 406              		.loc 2 138 0
 407 0058 9942     		cmp	r1, r3
 408              		.loc 2 137 0
 409 005a A0F802B0 		strh	fp, [r0, #2]	@ movhi
 410 005e 80F804A0 		strb	r10, [r0, #4]
 411 0062 4271     		strb	r2, [r0, #5]
 412              		.loc 2 138 0
 413 0064 2AD1     		bne	.L41
 414 0066 05B0     		add	sp, sp, #20
 415              		.cfi_remember_state
 416              		.cfi_def_cfa_offset 36
 417              		@ sp needed
 418 0068 BDE8F08F 		pop	{r4, r5, r6, r7, r8, r9, r10, fp, pc}
 419              	.LVL36:
 420              	.L40:
 421              		.cfi_restore_state
 422              		.loc 2 91 0
 423 006c 4545     		cmp	r5, r8
 424 006e EDD0     		beq	.L39
 425              		.loc 2 91 0 is_stmt 0 discriminator 1
 426 0070 002A     		cmp	r2, #0
 427 0072 ECD0     		beq	.L24
 428 0074 4E19     		adds	r6, r1, r5
 429              	.LVL37:
 430              	.L30:
 431              		.loc 2 97 0 is_stmt 1
 432 0076 16F801CB 		ldrb	ip, [r6], #1	@ zero_extendqisi2
 433 007a BC45     		cmp	ip, r7
 434 007c ABB2     		uxth	r3, r5
 435 007e 03D9     		bls	.L27
 436              		.loc 2 97 0 is_stmt 0 discriminator 1
 437 0080 16F806CC 		ldrb	ip, [r6, #-6]	@ zero_extendqisi2
 438 0084 BC45     		cmp	ip, r7
 439 0086 0AD3     		bcc	.L28
 440              	.L27:
 441              	.LVL38:
 442 0088 0133     		adds	r3, r3, #1
 443 008a 9BB2     		uxth	r3, r3
 444              	.LVL39:
 445              		.loc 2 95 0 is_stmt 1
 446 008c B3F5207F 		cmp	r3, #640
 447 0090 05F10105 		add	r5, r5, #1
 448 0094 EFD1     		bne	.L30
 449              		.loc 2 105 0 discriminator 1
 450 0096 0CB9     		cbnz	r4, .L42
 451              		.loc 2 128 0
 452 0098 2246     		mov	r2, r4
 453              	.LVL40:
 454 009a D8E7     		b	.L24
 455              	.LVL41:
 456              	.L42:
ARM GAS  C:\Users\hirtt\AppData\Local\Temp\ccQG94Ra.s 			page 9


 457 009c 2346     		mov	r3, r4
 458              	.LVL42:
 459              	.L28:
 460              		.loc 2 116 0
 461 009e 9D1A     		subs	r5, r3, r2
 462 00a0 1D2D     		cmp	r5, #29
 463              		.loc 2 119 0
 464 00a2 4FF00004 		mov	r4, #0
 465              		.loc 2 116 0
 466 00a6 C1DD     		ble	.L21
 467              		.loc 2 134 0
 468 00a8 9918     		adds	r1, r3, r2
 469              	.LVL43:
 470 00aa 064C     		ldr	r4, .L43+4
 471 00ac 4910     		asrs	r1, r1, #1
 472 00ae 9346     		mov	fp, r2
 473              	.LVL44:
 474              		.loc 2 130 0
 475 00b0 5FFA85FA 		uxtb	r10, r5
 476              	.LVL45:
 477              		.loc 2 134 0
 478 00b4 9946     		mov	r9, r3
 479 00b6 2180     		strh	r1, [r4]	@ movhi
 480              		.loc 2 133 0
 481 00b8 0122     		movs	r2, #1
 482              	.LVL46:
 483 00ba C8E7     		b	.L24
 484              	.LVL47:
 485              	.L41:
 486              		.loc 2 138 0
 487 00bc FFF7FEFF 		bl	__stack_chk_fail
 488              	.LVL48:
 489              	.L44:
 490              		.align	2
 491              	.L43:
 492 00c0 00000000 		.word	__stack_chk_guard
 493 00c4 00000000 		.word	.LANCHOR4
 494              		.cfi_endproc
 495              	.LFE258:
 496              		.size	extract_line_width, .-extract_line_width
 497              		.section	.text.extract_barcode,"ax",%progbits
 498              		.align	1
 499              		.p2align 4,,15
 500              		.global	extract_barcode
 501              		.syntax unified
 502              		.thumb
 503              		.thumb_func
 504              		.fpu fpv4-sp-d16
 505              		.type	extract_barcode, %function
 506              	extract_barcode:
 507              	.LFB257:
 508              		.loc 2 22 0
 509              		.cfi_startproc
 510              		@ args = 0, pretend = 0, frame = 32
 511              		@ frame_needed = 0, uses_anonymous_args = 0
 512              	.LVL49:
 513 0000 2DE9F04F 		push	{r4, r5, r6, r7, r8, r9, r10, fp, lr}
ARM GAS  C:\Users\hirtt\AppData\Local\Temp\ccQG94Ra.s 			page 10


 514              		.cfi_def_cfa_offset 36
 515              		.cfi_offset 4, -36
 516              		.cfi_offset 5, -32
 517              		.cfi_offset 6, -28
 518              		.cfi_offset 7, -24
 519              		.cfi_offset 8, -20
 520              		.cfi_offset 9, -16
 521              		.cfi_offset 10, -12
 522              		.cfi_offset 11, -8
 523              		.cfi_offset 14, -4
 524 0004 DFF81C81 		ldr	r8, .L59+24
 525 0008 8BB0     		sub	sp, sp, #44
 526              		.cfi_def_cfa_offset 80
 527              		.loc 2 22 0
 528 000a D8F80030 		ldr	r3, [r8]
 529 000e 0993     		str	r3, [sp, #36]
 530              	.LVL50:
 531 0010 0646     		mov	r6, r0
 532 0012 431E     		subs	r3, r0, #1
 533              	.LBB84:
 534              	.LBB85:
 535              		.loc 2 142 0
 536 0014 0022     		movs	r2, #0
 537 0016 00F27F20 		addw	r0, r0, #639
 538              	.LVL51:
 539              	.L46:
 540              	.LBB86:
 541              		.loc 2 144 0
 542 001a 13F8011F 		ldrb	r1, [r3, #1]!	@ zero_extendqisi2
 543              		.loc 2 143 0
 544 001e 9842     		cmp	r0, r3
 545              		.loc 2 144 0
 546 0020 0A44     		add	r2, r2, r1
 547              	.LVL52:
 548              		.loc 2 143 0
 549 0022 FAD1     		bne	.L46
 550              	.LBE86:
 551              		.loc 2 146 0
 552 0024 394C     		ldr	r4, .L59
 553 0026 A4FB0232 		umull	r3, r2, r4, r2
 554              	.LVL53:
 555 002a 540A     		lsrs	r4, r2, #9
 556              	.LVL54:
 557              	.LBE85:
 558              	.LBE84:
 559              		.loc 2 36 0
 560 002c 0027     		movs	r7, #0
 561 002e 631F     		subs	r3, r4, #5
 562 0030 ADF81470 		strh	r7, [sp, #20]	@ movhi
 563 0034 ADF81870 		strh	r7, [sp, #24]	@ movhi
 564 0038 05A8     		add	r0, sp, #20
 565 003a 0093     		str	r3, [sp]
 566 003c 90E80C00 		ldm	r0, {r2, r3}
 567 0040 3146     		mov	r1, r6
 568 0042 FFF7FEFF 		bl	extract_line_width
 569              	.LVL55:
 570              		.loc 2 37 0
ARM GAS  C:\Users\hirtt\AppData\Local\Temp\ccQG94Ra.s 			page 11


 571 0046 9DF81930 		ldrb	r3, [sp, #25]	@ zero_extendqisi2
 572              		.loc 2 36 0
 573 004a BDF81450 		ldrh	r5, [sp, #20]
 574              	.LVL56:
 575 004e 9DF81890 		ldrb	r9, [sp, #24]	@ zero_extendqisi2
 576              	.LVL57:
 577              		.loc 2 37 0
 578 0052 002B     		cmp	r3, #0
 579 0054 3AD1     		bne	.L56
 580              	.LVL58:
 581              		.loc 2 43 0
 582 0056 BBF1000F 		cmp	fp, #0
 583 005a 4ED0     		beq	.L48
 584              	.L58:
 585              		.loc 2 44 0
 586 005c AAEB0503 		sub	r3, r10, r5
 587 0060 DBB2     		uxtb	r3, r3
 588              	.LVL59:
 589              		.loc 2 45 0
 590 0062 A9F12202 		sub	r2, r9, #34
 591              		.loc 2 44 0
 592 0066 5D1D     		adds	r5, r3, #5
 593              	.LVL60:
 594              		.loc 2 45 0
 595 0068 082A     		cmp	r2, #8
 596 006a EDB2     		uxtb	r5, r5
 597 006c 0DD8     		bhi	.L49
 598              		.loc 2 47 0
 599 006e 039A     		ldr	r2, [sp, #12]
 600 0070 223A     		subs	r2, r2, #34
 601 0072 D2B2     		uxtb	r2, r2
 602 0074 082A     		cmp	r2, #8
 603 0076 08D8     		bhi	.L49
 604              		.loc 2 49 0
 605 0078 1D3B     		subs	r3, r3, #29
 606              	.LVL61:
 607 007a 082B     		cmp	r3, #8
 608 007c 05D8     		bhi	.L49
 609              		.loc 2 51 0
 610 007e 0121     		movs	r1, #1
 611 0080 0846     		mov	r0, r1
 612 0082 FFF7FEFF 		bl	set_led
 613              	.LVL62:
 614              		.loc 2 52 0
 615 0086 FFF7FEFF 		bl	barcode_validate
 616              	.LVL63:
 617              	.L49:
 618              		.loc 2 58 0
 619 008a 2246     		mov	r2, r4
 620 008c 2049     		ldr	r1, .L59+4
 621 008e 2148     		ldr	r0, .L59+8
 622 0090 FFF7FEFF 		bl	chprintf.constprop.0
 623              	.LVL64:
 624              		.loc 2 59 0
 625 0094 4A46     		mov	r2, r9
 626 0096 BDF81630 		ldrh	r3, [sp, #22]
 627 009a 1F49     		ldr	r1, .L59+12
ARM GAS  C:\Users\hirtt\AppData\Local\Temp\ccQG94Ra.s 			page 12


 628 009c 1D48     		ldr	r0, .L59+8
 629 009e FFF7FEFF 		bl	chprintf.constprop.0
 630              	.LVL65:
 631              		.loc 2 60 0
 632 00a2 5346     		mov	r3, r10
 633 00a4 039A     		ldr	r2, [sp, #12]
 634 00a6 1D49     		ldr	r1, .L59+16
 635 00a8 1A48     		ldr	r0, .L59+8
 636 00aa FFF7FEFF 		bl	chprintf.constprop.0
 637              	.LVL66:
 638              		.loc 2 61 0
 639 00ae 2A46     		mov	r2, r5
 640 00b0 1B49     		ldr	r1, .L59+20
 641 00b2 1848     		ldr	r0, .L59+8
 642 00b4 FFF7FEFF 		bl	chprintf.constprop.0
 643              	.LVL67:
 644              		.loc 2 65 0
 645 00b8 099A     		ldr	r2, [sp, #36]
 646 00ba D8F80030 		ldr	r3, [r8]
 647 00be 9A42     		cmp	r2, r3
 648 00c0 4FF00000 		mov	r0, #0
 649 00c4 1FD1     		bne	.L57
 650 00c6 0BB0     		add	sp, sp, #44
 651              		.cfi_remember_state
 652              		.cfi_def_cfa_offset 36
 653              		@ sp needed
 654 00c8 BDE8F08F 		pop	{r4, r5, r6, r7, r8, r9, r10, fp, pc}
 655              	.LVL68:
 656              	.L56:
 657              		.cfi_restore_state
 658              		.loc 2 41 0
 659 00cc ADF81C50 		strh	r5, [sp, #28]	@ movhi
 660 00d0 ADF81E50 		strh	r5, [sp, #30]	@ movhi
 661 00d4 ADF82070 		strh	r7, [sp, #32]	@ movhi
 662 00d8 07A8     		add	r0, sp, #28
 663 00da 0094     		str	r4, [sp]
 664 00dc 90E80C00 		ldm	r0, {r2, r3}
 665 00e0 3146     		mov	r1, r6
 666 00e2 FFF7FEFF 		bl	extract_line_width
 667              	.LVL69:
 668 00e6 9DF821B0 		ldrb	fp, [sp, #33]	@ zero_extendqisi2
 669 00ea 9DF82030 		ldrb	r3, [sp, #32]	@ zero_extendqisi2
 670 00ee BDF81EA0 		ldrh	r10, [sp, #30]
 671              	.LVL70:
 672 00f2 0393     		str	r3, [sp, #12]
 673              	.LVL71:
 674              		.loc 2 43 0
 675 00f4 BBF1000F 		cmp	fp, #0
 676 00f8 B0D1     		bne	.L58
 677              	.LVL72:
 678              	.L48:
 679              		.loc 2 56 0
 680 00fa 5946     		mov	r1, fp
 681 00fc 0120     		movs	r0, #1
 682 00fe FFF7FEFF 		bl	set_led
 683              	.LVL73:
 684 0102 5D46     		mov	r5, fp
ARM GAS  C:\Users\hirtt\AppData\Local\Temp\ccQG94Ra.s 			page 13


 685              	.LVL74:
 686 0104 C1E7     		b	.L49
 687              	.LVL75:
 688              	.L57:
 689              		.loc 2 65 0
 690 0106 FFF7FEFF 		bl	__stack_chk_fail
 691              	.LVL76:
 692              	.L60:
 693 010a 00BF     		.align	2
 694              	.L59:
 695 010c CDCCCCCC 		.word	-858993459
 696 0110 00000000 		.word	.LC0
 697 0114 00000000 		.word	SD3
 698 0118 10000000 		.word	.LC1
 699 011c 38000000 		.word	.LC2
 700 0120 60000000 		.word	.LC3
 701 0124 00000000 		.word	__stack_chk_guard
 702              		.cfi_endproc
 703              	.LFE257:
 704              		.size	extract_barcode, .-extract_barcode
 705              		.section	.text.ProcessImage,"ax",%progbits
 706              		.align	1
 707              		.p2align 4,,15
 708              		.syntax unified
 709              		.thumb
 710              		.thumb_func
 711              		.fpu fpv4-sp-d16
 712              		.type	ProcessImage, %function
 713              	ProcessImage:
 714              	.LFB261:
 715              		.loc 2 179 0
 716              		.cfi_startproc
 717              		@ args = 0, pretend = 0, frame = 648
 718              		@ frame_needed = 0, uses_anonymous_args = 0
 719              	.LVL77:
 720 0000 70B5     		push	{r4, r5, r6, lr}
 721              		.cfi_def_cfa_offset 16
 722              		.cfi_offset 4, -16
 723              		.cfi_offset 5, -12
 724              		.cfi_offset 6, -8
 725              		.cfi_offset 14, -4
 726              	.LBB87:
 727              	.LBB88:
 728              		.loc 3 135 0
 729 0002 174A     		ldr	r2, .L72
 730              	.LBE88:
 731              	.LBE87:
 732              		.loc 2 179 0
 733 0004 174B     		ldr	r3, .L72+4
 734              	.LBB90:
 735              	.LBB89:
 736              		.loc 3 135 0
 737 0006 9269     		ldr	r2, [r2, #24]
 738 0008 1749     		ldr	r1, .L72+8
 739 000a 9161     		str	r1, [r2, #24]
 740              	.LBE89:
 741              	.LBE90:
ARM GAS  C:\Users\hirtt\AppData\Local\Temp\ccQG94Ra.s 			page 14


 742              		.loc 2 179 0
 743 000c ADF5227D 		sub	sp, sp, #648
 744              		.cfi_def_cfa_offset 664
 745              		.loc 2 185 0
 746 0010 01AC     		add	r4, sp, #4
 747              		.loc 2 179 0
 748 0012 1B68     		ldr	r3, [r3]
 749 0014 A193     		str	r3, [sp, #644]
 750              		.loc 2 185 0
 751 0016 2046     		mov	r0, r4
 752              	.LVL78:
 753 0018 4FF42072 		mov	r2, #640
 754 001c 0021     		movs	r1, #0
 755 001e FFF7FEFF 		bl	memset
 756              	.LVL79:
 757              	.LBB91:
 758              	.LBB92:
 759              		.loc 5 143 0
 760 0022 124E     		ldr	r6, .L72+12
 761              	.LBE92:
 762              	.LBE91:
 763              		.loc 2 188 0
 764 0024 0125     		movs	r5, #1
 765              	.LVL80:
 766              	.L64:
 767              	.LBB94:
 768              	.LBB93:
 769              		.loc 5 143 0
 770 0026 3046     		mov	r0, r6
 771 0028 FFF7FEFF 		bl	chSemWait
 772              	.LVL81:
 773              	.LBE93:
 774              	.LBE94:
 775              		.loc 2 194 0
 776 002c FFF7FEFF 		bl	dcmi_get_last_image_ptr
 777              	.LVL82:
 778 0030 0023     		movs	r3, #0
 779              	.LVL83:
 780              	.L62:
 781              	.LBB95:
 782              		.loc 2 200 0 discriminator 3
 783 0032 C25C     		ldrb	r2, [r0, r3]	@ zero_extendqisi2
 784 0034 C3F34E01 		ubfx	r1, r3, #1, #15
 785 0038 0233     		adds	r3, r3, #2
 786              	.LVL84:
 787 003a 22F00702 		bic	r2, r2, #7
 788              		.loc 2 197 0 discriminator 3
 789 003e B3F5A06F 		cmp	r3, #1280
 790              		.loc 2 200 0 discriminator 3
 791 0042 6254     		strb	r2, [r4, r1]
 792              		.loc 2 197 0 discriminator 3
 793 0044 F5D1     		bne	.L62
 794              	.LBE95:
 795              		.loc 2 204 0
 796 0046 2046     		mov	r0, r4
 797              	.LVL85:
 798 0048 FFF7FEFF 		bl	extract_barcode
ARM GAS  C:\Users\hirtt\AppData\Local\Temp\ccQG94Ra.s 			page 15


 799              	.LVL86:
 800              		.loc 2 206 0
 801 004c 15B9     		cbnz	r5, .L71
 802              	.L63:
 803              		.loc 2 211 0
 804 004e 85F00105 		eor	r5, r5, #1
 805              	.LVL87:
 806              		.loc 2 192 0
 807 0052 E8E7     		b	.L64
 808              	.L71:
 809              		.loc 2 208 0
 810 0054 4FF42071 		mov	r1, #640
 811 0058 2046     		mov	r0, r4
 812 005a FFF7FEFF 		bl	SendUint8ToComputer
 813              	.LVL88:
 814 005e F6E7     		b	.L63
 815              	.L73:
 816              		.align	2
 817              	.L72:
 818 0060 00000000 		.word	ch
 819 0064 00000000 		.word	__stack_chk_guard
 820 0068 00000000 		.word	.LANCHOR5
 821 006c 00000000 		.word	.LANCHOR2
 822              		.cfi_endproc
 823              	.LFE261:
 824              		.size	ProcessImage, .-ProcessImage
 825              		.section	.text.calculate_mean,"ax",%progbits
 826              		.align	1
 827              		.p2align 4,,15
 828              		.global	calculate_mean
 829              		.syntax unified
 830              		.thumb
 831              		.thumb_func
 832              		.fpu fpv4-sp-d16
 833              		.type	calculate_mean, %function
 834              	calculate_mean:
 835              	.LFB259:
 836              		.loc 2 140 0
 837              		.cfi_startproc
 838              		@ args = 0, pretend = 0, frame = 8
 839              		@ frame_needed = 0, uses_anonymous_args = 0
 840              	.LVL89:
 841 0000 10B5     		push	{r4, lr}
 842              		.cfi_def_cfa_offset 8
 843              		.cfi_offset 4, -8
 844              		.cfi_offset 14, -4
 845 0002 0D4C     		ldr	r4, .L80
 846 0004 82B0     		sub	sp, sp, #8
 847              		.cfi_def_cfa_offset 16
 848              		.loc 2 140 0
 849 0006 2368     		ldr	r3, [r4]
 850 0008 0193     		str	r3, [sp, #4]
 851              	.LVL90:
 852              		.loc 2 142 0
 853 000a 0022     		movs	r2, #0
 854 000c 431E     		subs	r3, r0, #1
 855 000e 00F27F20 		addw	r0, r0, #639
ARM GAS  C:\Users\hirtt\AppData\Local\Temp\ccQG94Ra.s 			page 16


 856              	.LVL91:
 857              	.L75:
 858              	.LBB96:
 859              		.loc 2 144 0 discriminator 3
 860 0012 13F8011F 		ldrb	r1, [r3, #1]!	@ zero_extendqisi2
 861              	.LVL92:
 862              		.loc 2 143 0 discriminator 3
 863 0016 8342     		cmp	r3, r0
 864              		.loc 2 144 0 discriminator 3
 865 0018 0A44     		add	r2, r2, r1
 866              	.LVL93:
 867              		.loc 2 143 0 discriminator 3
 868 001a FAD1     		bne	.L75
 869              	.LVL94:
 870              	.LBE96:
 871              		.loc 2 148 0
 872 001c 0199     		ldr	r1, [sp, #4]
 873              		.loc 2 146 0
 874 001e 0748     		ldr	r0, .L80+4
 875              	.LVL95:
 876              		.loc 2 148 0
 877 0020 2368     		ldr	r3, [r4]
 878              	.LVL96:
 879              		.loc 2 146 0
 880 0022 A0FB0220 		umull	r2, r0, r0, r2
 881              	.LVL97:
 882              		.loc 2 148 0
 883 0026 9942     		cmp	r1, r3
 884 0028 4FEA5020 		lsr	r0, r0, #9
 885 002c 01D1     		bne	.L79
 886 002e 02B0     		add	sp, sp, #8
 887              		.cfi_remember_state
 888              		.cfi_def_cfa_offset 8
 889              		@ sp needed
 890 0030 10BD     		pop	{r4, pc}
 891              	.L79:
 892              		.cfi_restore_state
 893 0032 FFF7FEFF 		bl	__stack_chk_fail
 894              	.LVL98:
 895              	.L81:
 896 0036 00BF     		.align	2
 897              	.L80:
 898 0038 00000000 		.word	__stack_chk_guard
 899 003c CDCCCCCC 		.word	-858993459
 900              		.cfi_endproc
 901              	.LFE259:
 902              		.size	calculate_mean, .-calculate_mean
 903              		.section	.text.capture_image,"ax",%progbits
 904              		.align	1
 905              		.p2align 4,,15
 906              		.global	capture_image
 907              		.syntax unified
 908              		.thumb
 909              		.thumb_func
 910              		.fpu fpv4-sp-d16
 911              		.type	capture_image, %function
 912              	capture_image:
ARM GAS  C:\Users\hirtt\AppData\Local\Temp\ccQG94Ra.s 			page 17


 913              	.LFB262:
 914              		.loc 2 215 0
 915              		.cfi_startproc
 916              		@ args = 0, pretend = 0, frame = 8
 917              		@ frame_needed = 0, uses_anonymous_args = 0
 918              	.LVL99:
 919 0000 00B5     		push	{lr}
 920              		.cfi_def_cfa_offset 4
 921              		.cfi_offset 14, -4
 922 0002 094B     		ldr	r3, .L89
 923 0004 83B0     		sub	sp, sp, #12
 924              		.cfi_def_cfa_offset 16
 925              		.loc 2 215 0
 926 0006 1A68     		ldr	r2, [r3]
 927 0008 0192     		str	r2, [sp, #4]
 928              		.loc 2 216 0
 929 000a 08B1     		cbz	r0, .L87
 930              		.loc 2 218 0
 931 000c 0128     		cmp	r0, #1
 932 000e 01D1     		bne	.L82
 933              	.L87:
 934              		.loc 2 219 0
 935 0010 064A     		ldr	r2, .L89+4
 936 0012 1070     		strb	r0, [r2]
 937              	.L82:
 938              		.loc 2 220 0
 939 0014 019A     		ldr	r2, [sp, #4]
 940 0016 1B68     		ldr	r3, [r3]
 941 0018 9A42     		cmp	r2, r3
 942 001a 02D1     		bne	.L88
 943 001c 03B0     		add	sp, sp, #12
 944              		.cfi_remember_state
 945              		.cfi_def_cfa_offset 4
 946              		@ sp needed
 947 001e 5DF804FB 		ldr	pc, [sp], #4
 948              	.L88:
 949              		.cfi_restore_state
 950 0022 FFF7FEFF 		bl	__stack_chk_fail
 951              	.LVL100:
 952              	.L90:
 953 0026 00BF     		.align	2
 954              	.L89:
 955 0028 00000000 		.word	__stack_chk_guard
 956 002c 00000000 		.word	.LANCHOR1
 957              		.cfi_endproc
 958              	.LFE262:
 959              		.size	capture_image, .-capture_image
 960              		.section	.text.get_line_position,"ax",%progbits
 961              		.align	1
 962              		.p2align 4,,15
 963              		.global	get_line_position
 964              		.syntax unified
 965              		.thumb
 966              		.thumb_func
 967              		.fpu fpv4-sp-d16
 968              		.type	get_line_position, %function
 969              	get_line_position:
ARM GAS  C:\Users\hirtt\AppData\Local\Temp\ccQG94Ra.s 			page 18


 970              	.LFB263:
 971              		.loc 2 222 0
 972              		.cfi_startproc
 973              		@ args = 0, pretend = 0, frame = 8
 974              		@ frame_needed = 0, uses_anonymous_args = 0
 975 0000 00B5     		push	{lr}
 976              		.cfi_def_cfa_offset 4
 977              		.cfi_offset 14, -4
 978 0002 074B     		ldr	r3, .L95
 979              		.loc 2 223 0
 980 0004 0749     		ldr	r1, .L95+4
 981              		.loc 2 222 0
 982 0006 1A68     		ldr	r2, [r3]
 983              		.loc 2 224 0
 984 0008 0888     		ldrh	r0, [r1]
 985              		.loc 2 222 0
 986 000a 83B0     		sub	sp, sp, #12
 987              		.cfi_def_cfa_offset 16
 988              		.loc 2 222 0
 989 000c 0192     		str	r2, [sp, #4]
 990              		.loc 2 224 0
 991 000e 019A     		ldr	r2, [sp, #4]
 992 0010 1B68     		ldr	r3, [r3]
 993 0012 9A42     		cmp	r2, r3
 994 0014 02D1     		bne	.L94
 995 0016 03B0     		add	sp, sp, #12
 996              		.cfi_remember_state
 997              		.cfi_def_cfa_offset 4
 998              		@ sp needed
 999 0018 5DF804FB 		ldr	pc, [sp], #4
 1000              	.L94:
 1001              		.cfi_restore_state
 1002 001c FFF7FEFF 		bl	__stack_chk_fail
 1003              	.LVL101:
 1004              	.L96:
 1005              		.align	2
 1006              	.L95:
 1007 0020 00000000 		.word	__stack_chk_guard
 1008 0024 00000000 		.word	.LANCHOR4
 1009              		.cfi_endproc
 1010              	.LFE263:
 1011              		.size	get_line_position, .-get_line_position
 1012              		.section	.text.process_image_start,"ax",%progbits
 1013              		.align	1
 1014              		.p2align 4,,15
 1015              		.global	process_image_start
 1016              		.syntax unified
 1017              		.thumb
 1018              		.thumb_func
 1019              		.fpu fpv4-sp-d16
 1020              		.type	process_image_start, %function
 1021              	process_image_start:
 1022              	.LFB264:
 1023              		.loc 2 226 0
 1024              		.cfi_startproc
 1025              		@ args = 0, pretend = 0, frame = 8
 1026              		@ frame_needed = 0, uses_anonymous_args = 0
ARM GAS  C:\Users\hirtt\AppData\Local\Temp\ccQG94Ra.s 			page 19


 1027 0000 30B5     		push	{r4, r5, lr}
 1028              		.cfi_def_cfa_offset 12
 1029              		.cfi_offset 4, -12
 1030              		.cfi_offset 5, -8
 1031              		.cfi_offset 14, -4
 1032 0002 0E4C     		ldr	r4, .L101
 1033              		.loc 2 227 0
 1034 0004 0E4B     		ldr	r3, .L101+4
 1035              		.loc 2 226 0
 1036 0006 2268     		ldr	r2, [r4]
 1037              		.loc 2 227 0
 1038 0008 0E48     		ldr	r0, .L101+8
 1039              		.loc 2 226 0
 1040 000a 85B0     		sub	sp, sp, #20
 1041              		.cfi_def_cfa_offset 32
 1042              		.loc 2 227 0
 1043 000c 0025     		movs	r5, #0
 1044              		.loc 2 226 0
 1045 000e 0392     		str	r2, [sp, #12]
 1046              		.loc 2 227 0
 1047 0010 4FF4AF61 		mov	r1, #1400
 1048 0014 4022     		movs	r2, #64
 1049 0016 0095     		str	r5, [sp]
 1050 0018 FFF7FEFF 		bl	chThdCreateStatic
 1051              	.LVL102:
 1052              		.loc 2 228 0
 1053 001c 0A4B     		ldr	r3, .L101+12
 1054 001e 0095     		str	r5, [sp]
 1055 0020 4022     		movs	r2, #64
 1056 0022 0A48     		ldr	r0, .L101+16
 1057 0024 4FF41E71 		mov	r1, #632
 1058 0028 FFF7FEFF 		bl	chThdCreateStatic
 1059              	.LVL103:
 1060              		.loc 2 230 0
 1061 002c 039A     		ldr	r2, [sp, #12]
 1062 002e 2368     		ldr	r3, [r4]
 1063 0030 9A42     		cmp	r2, r3
 1064 0032 01D1     		bne	.L100
 1065 0034 05B0     		add	sp, sp, #20
 1066              		.cfi_remember_state
 1067              		.cfi_def_cfa_offset 12
 1068              		@ sp needed
 1069 0036 30BD     		pop	{r4, r5, pc}
 1070              	.L100:
 1071              		.cfi_restore_state
 1072 0038 FFF7FEFF 		bl	__stack_chk_fail
 1073              	.LVL104:
 1074              	.L102:
 1075              		.align	2
 1076              	.L101:
 1077 003c 00000000 		.word	__stack_chk_guard
 1078 0040 00000000 		.word	ProcessImage
 1079 0044 00000000 		.word	.LANCHOR6
 1080 0048 00000000 		.word	CaptureImage
 1081 004c 00000000 		.word	.LANCHOR7
 1082              		.cfi_endproc
 1083              	.LFE264:
ARM GAS  C:\Users\hirtt\AppData\Local\Temp\ccQG94Ra.s 			page 20


 1084              		.size	process_image_start, .-process_image_start
 1085              		.section	.bss.suspended,"aw",%nobits
 1086              		.set	.LANCHOR1,. + 0
 1087              		.type	suspended, %object
 1088              		.size	suspended, 1
 1089              	suspended:
 1090 0000 00       		.space	1
 1091              		.section	.bss.waCaptureImage,"aw",%nobits
 1092              		.align	3
 1093              		.set	.LANCHOR7,. + 0
 1094              		.type	waCaptureImage, %object
 1095              		.size	waCaptureImage, 632
 1096              	waCaptureImage:
 1097 0000 00000000 		.space	632
 1097      00000000 
 1097      00000000 
 1097      00000000 
 1097      00000000 
 1098              		.section	.bss.waProcessImage,"aw",%nobits
 1099              		.align	3
 1100              		.set	.LANCHOR6,. + 0
 1101              		.type	waProcessImage, %object
 1102              		.size	waProcessImage, 1400
 1103              	waProcessImage:
 1104 0000 00000000 		.space	1400
 1104      00000000 
 1104      00000000 
 1104      00000000 
 1104      00000000 
 1105              		.section	.data.image_ready_sem,"aw",%progbits
 1106              		.align	2
 1107              		.set	.LANCHOR2,. + 0
 1108              		.type	image_ready_sem, %object
 1109              		.size	image_ready_sem, 12
 1110              	image_ready_sem:
 1111 0000 00000000 		.word	image_ready_sem
 1112 0004 00000000 		.word	image_ready_sem
 1113 0008 00000000 		.word	0
 1114              		.section	.data.line_position,"aw",%progbits
 1115              		.align	1
 1116              		.set	.LANCHOR4,. + 0
 1117              		.type	line_position, %object
 1118              		.size	line_position, 2
 1119              	line_position:
 1120 0000 4001     		.short	320
 1121              		.section	.rodata.__FUNCTION__.11433,"a",%progbits
 1122              		.align	2
 1123              		.set	.LANCHOR0,. + 0
 1124              		.type	__FUNCTION__.11433, %object
 1125              		.size	__FUNCTION__.11433, 13
 1126              	__FUNCTION__.11433:
 1127 0000 43617074 		.ascii	"CaptureImage\000"
 1127      75726549 
 1127      6D616765 
 1127      00
 1128              		.section	.rodata.__FUNCTION__.11439,"a",%progbits
 1129              		.align	2
ARM GAS  C:\Users\hirtt\AppData\Local\Temp\ccQG94Ra.s 			page 21


 1130              		.set	.LANCHOR5,. + 0
 1131              		.type	__FUNCTION__.11439, %object
 1132              		.size	__FUNCTION__.11439, 13
 1133              	__FUNCTION__.11439:
 1134 0000 50726F63 		.ascii	"ProcessImage\000"
 1134      65737349 
 1134      6D616765 
 1134      00
 1135              		.section	.rodata.__func__.7153,"a",%progbits
 1136              		.align	2
 1137              		.set	.LANCHOR3,. + 0
 1138              		.type	__func__.7153, %object
 1139              		.size	__func__.7153, 12
 1140              	__func__.7153:
 1141 0000 63685379 		.ascii	"chSysUnlock\000"
 1141      73556E6C 
 1141      6F636B00 
 1142              		.section	.rodata.extract_barcode.str1.4,"aMS",%progbits,1
 1143              		.align	2
 1144              	.LC0:
 1145 0000 6D6F7965 		.ascii	"moyenne = %d\012\000"
 1145      6E6E6520 
 1145      3D202564 
 1145      0A00
 1146 000e 0000     		.space	2
 1147              	.LC1:
 1148 0010 6C617267 		.ascii	"largeur ligne 1 = %d  et  d\351part1 = %d\012\000"
 1148      65757220 
 1148      6C69676E 
 1148      65203120 
 1148      3D202564 
 1149              	.LC2:
 1150 0038 6C617267 		.ascii	"largeur ligne 2 = %d  et  d\351part2 = %d\012\000"
 1150      65757220 
 1150      6C69676E 
 1150      65203220 
 1150      3D202564 
 1151              	.LC3:
 1152 0060 6C617267 		.ascii	"largeur interli = %d\012\000"
 1152      65757220 
 1152      696E7465 
 1152      726C6920 
 1152      3D202564 
 1153              		.text
 1154              	.Letext0:
 1155              		.file 7 "c:\\users\\hirtt\\documents\\eclipse_e-puck2_win32_29_jan_2020\\eclipse_e-puck2\\tools\\g
 1156              		.file 8 "c:\\users\\hirtt\\documents\\eclipse_e-puck2_win32_29_jan_2020\\eclipse_e-puck2\\tools\\g
 1157              		.file 9 "c:\\users\\hirtt\\documents\\eclipse_e-puck2_win32_29_jan_2020\\eclipse_e-puck2\\tools\\g
 1158              		.file 10 "../../lib/e-puck2_main-processor/ChibiOS//os/rt/ports/ARMCMx/compilers/GCC/chtypes.h"
 1159              		.file 11 "../../lib/e-puck2_main-processor/ChibiOS//os/rt/include/chsystypes.h"
 1160              		.file 12 "../../lib/e-puck2_main-processor/ChibiOS//os/rt/include/chschd.h"
 1161              		.file 13 "../../lib/e-puck2_main-processor/ChibiOS//os/ext/CMSIS/include/core_cm4.h"
 1162              		.file 14 "../../lib/e-puck2_main-processor/ChibiOS//os/ext/CMSIS/ST/system_stm32f4xx.h"
 1163              		.file 15 "../../lib/e-puck2_main-processor/ChibiOS//os/ext/CMSIS/ST/stm32f407xx.h"
 1164              		.file 16 "../../lib/e-puck2_main-processor/ChibiOS//os/rt/ports/ARMCMx/chcore.h"
 1165              		.file 17 "../../lib/e-puck2_main-processor/ChibiOS//os/rt/ports/ARMCMx/chcore_v7m.h"
 1166              		.file 18 "../../lib/e-puck2_main-processor/ChibiOS//os/rt/include/chdebug.h"
ARM GAS  C:\Users\hirtt\AppData\Local\Temp\ccQG94Ra.s 			page 22


 1167              		.file 19 "../../lib/e-puck2_main-processor/ChibiOS//os/rt/include/chtm.h"
 1168              		.file 20 "../../lib/e-puck2_main-processor/ChibiOS//os/rt/include/chstats.h"
 1169              		.file 21 "../../lib/e-puck2_main-processor/ChibiOS//os/rt/include/chsem.h"
 1170              		.file 22 "../../lib/e-puck2_main-processor/ChibiOS//os/rt/include/chmtx.h"
 1171              		.file 23 "../../lib/e-puck2_main-processor/ChibiOS//os/rt/include/chevents.h"
 1172              		.file 24 "../../lib/e-puck2_main-processor/ChibiOS//os/rt/include/chqueues.h"
 1173              		.file 25 "../../lib/e-puck2_main-processor/ChibiOS//os/rt/include/chstreams.h"
 1174              		.file 26 "../../lib/e-puck2_main-processor/ChibiOS//os/hal/ports/STM32/STM32F4xx/stm32_dma.h"
 1175              		.file 27 "../../lib/e-puck2_main-processor/ChibiOS//os/hal/include/hal_ioblock.h"
 1176              		.file 28 "../../lib/e-puck2_main-processor/ChibiOS//os/hal/ports/STM32/LLD/GPIOv2/pal_lld.h"
 1177              		.file 29 "../../lib/e-puck2_main-processor/ChibiOS//os/hal/include/adc.h"
 1178              		.file 30 "../../lib/e-puck2_main-processor/ChibiOS//os/hal/ports/STM32/STM32F4xx/adc_lld.h"
 1179              		.file 31 "../../lib/e-puck2_main-processor/ChibiOS//os/hal/include/can.h"
 1180              		.file 32 "../../lib/e-puck2_main-processor/ChibiOS//os/hal/ports/STM32/LLD/can_lld.h"
 1181              		.file 33 "../../lib/e-puck2_main-processor/ChibiOS//os/hal/include/dac.h"
 1182              		.file 34 "../../lib/e-puck2_main-processor/ChibiOS//os/hal/ports/STM32/LLD/DACv1/dac_lld.h"
 1183              		.file 35 "../../lib/e-puck2_main-processor/ChibiOS//os/hal/include/ext.h"
 1184              		.file 36 "../../lib/e-puck2_main-processor/ChibiOS//os/hal/ports/STM32/LLD/ext_lld.h"
 1185              		.file 37 "../../lib/e-puck2_main-processor/ChibiOS//os/hal/include/gpt.h"
 1186              		.file 38 "../../lib/e-puck2_main-processor/ChibiOS//os/hal/ports/STM32/LLD/TIMv1/gpt_lld.h"
 1187              		.file 39 "../../lib/e-puck2_main-processor/ChibiOS//os/hal/ports/STM32/LLD/TIMv1/stm32_tim.h"
 1188              		.file 40 "../../lib/e-puck2_main-processor/ChibiOS//os/hal/include/i2c.h"
 1189              		.file 41 "../../lib/e-puck2_main-processor/ChibiOS//os/hal/ports/STM32/LLD/I2Cv1/i2c_lld.h"
 1190              		.file 42 "../../lib/e-puck2_main-processor/ChibiOS//os/hal/include/i2s.h"
 1191              		.file 43 "../../lib/e-puck2_main-processor/ChibiOS//os/hal/ports/STM32/LLD/SPIv1/i2s_lld.h"
 1192              		.file 44 "../../lib/e-puck2_main-processor/ChibiOS//os/hal/include/pwm.h"
 1193              		.file 45 "../../lib/e-puck2_main-processor/ChibiOS//os/hal/ports/STM32/LLD/TIMv1/pwm_lld.h"
 1194              		.file 46 "../../lib/e-puck2_main-processor/ChibiOS//os/hal/include/serial.h"
 1195              		.file 47 "../../lib/e-puck2_main-processor/ChibiOS//os/hal/ports/STM32/LLD/USARTv1/serial_lld.h"
 1196              		.file 48 "../../lib/e-puck2_main-processor/ChibiOS//os/hal/include/sdc.h"
 1197              		.file 49 "../../lib/e-puck2_main-processor/ChibiOS//os/hal/ports/STM32/LLD/sdc_lld.h"
 1198              		.file 50 "../../lib/e-puck2_main-processor/ChibiOS//os/hal/include/spi.h"
 1199              		.file 51 "../../lib/e-puck2_main-processor/ChibiOS//os/hal/ports/STM32/LLD/SPIv1/spi_lld.h"
 1200              		.file 52 "../../lib/e-puck2_main-processor/ChibiOS//os/hal/include/usb.h"
 1201              		.file 53 "../../lib/e-puck2_main-processor/ChibiOS//os/hal/ports/STM32/LLD/OTGv1/usb_lld.h"
 1202              		.file 54 "../../lib/e-puck2_main-processor/ChibiOS//os/hal/ports/STM32/LLD/OTGv1/stm32_otg.h"
 1203              		.file 55 "../../lib/e-puck2_main-processor/ChibiOS//os/hal/include/serial_usb.h"
 1204              		.file 56 "c:\\users\\hirtt\\documents\\eclipse_e-puck2_win32_29_jan_2020\\eclipse_e-puck2\\tools\\
 1205              		.file 57 "<built-in>"
 1206              		.file 58 "../../lib/e-puck2_main-processor/src/usbcfg.h"
 1207              		.file 59 "../../lib/e-puck2_main-processor/src/camera/po8030.h"
 1208              		.file 60 "../../lib/e-puck2_main-processor/ChibiOS_ext/os/hal/include/../ports/STM32/STM32F4xx/dcm
 1209              		.file 61 "../../lib/e-puck2_main-processor/src/camera/dcmi_camera.h"
 1210              		.file 62 "c:\\users\\hirtt\\documents\\eclipse_e-puck2_win32_29_jan_2020\\eclipse_e-puck2\\tools\\
 1211              		.file 63 "c:\\users\\hirtt\\documents\\eclipse_e-puck2_win32_29_jan_2020\\eclipse_e-puck2\\tools\\
 1212              		.file 64 "c:\\users\\hirtt\\documents\\eclipse_e-puck2_win32_29_jan_2020\\eclipse_e-puck2\\tools\\
 1213              		.file 65 "c:\\users\\hirtt\\documents\\eclipse_e-puck2_win32_29_jan_2020\\eclipse_e-puck2\\tools\\
 1214              		.file 66 "c:\\users\\hirtt\\documents\\eclipse_e-puck2_win32_29_jan_2020\\eclipse_e-puck2\\tools\\
 1215              		.file 67 "./process_image.h"
 1216              		.file 68 "../../lib/e-puck2_main-processor/src/leds.h"
 1217              		.file 69 "../../lib/e-puck2_main-processor/ChibiOS//os/rt/include/chthreads.h"
 1218              		.file 70 "./communications.h"
 1219              		.file 71 "./body_led_thd.h"